(lp0
ccopy_reg
_reconstructor
p1
(cnetworkx.classes.graph
Graph
p2
c__builtin__
object
p3
Ntp4
Rp5
(dp6
S'node'
p7
(dp8
I1
(dp9
sI2
(dp10
sI3
(dp11
sI4
(dp12
sI5
(dp13
sI6
(dp14
sI7
(dp15
sI8
(dp16
sI9
(dp17
sI10
(dp18
sI11
(dp19
sI12
(dp20
sI13
(dp21
sI14
(dp22
sI15
(dp23
sI16
(dp24
sI17
(dp25
sI18
(dp26
sI19
(dp27
sI20
(dp28
sI21
(dp29
sI22
(dp30
sI23
(dp31
sI24
(dp32
sI25
(dp33
sI26
(dp34
sI27
(dp35
sI28
(dp36
sI29
(dp37
sI30
(dp38
sI31
(dp39
sI32
(dp40
sI33
(dp41
sI34
(dp42
sI35
(dp43
sI36
(dp44
sI37
(dp45
sI38
(dp46
sI39
(dp47
sI40
(dp48
sI41
(dp49
sI42
(dp50
sI43
(dp51
sI44
(dp52
sI45
(dp53
sI46
(dp54
sI47
(dp55
sI48
(dp56
sI49
(dp57
sI50
(dp58
sI51
(dp59
sI52
(dp60
sI53
(dp61
sI54
(dp62
sI55
(dp63
sI56
(dp64
sI57
(dp65
sI58
(dp66
sI59
(dp67
sI60
(dp68
sI61
(dp69
sI62
(dp70
sI63
(dp71
sI64
(dp72
sI65
(dp73
sI66
(dp74
sI67
(dp75
sI68
(dp76
sI69
(dp77
sI70
(dp78
sI71
(dp79
sI72
(dp80
sI73
(dp81
sI74
(dp82
sI75
(dp83
sI76
(dp84
sI77
(dp85
sI78
(dp86
sI79
(dp87
sI80
(dp88
sI81
(dp89
sI82
(dp90
sI83
(dp91
sI84
(dp92
sI85
(dp93
sI86
(dp94
sI87
(dp95
sI88
(dp96
sI89
(dp97
sI90
(dp98
sI91
(dp99
sI92
(dp100
sI93
(dp101
sI94
(dp102
sI95
(dp103
sI96
(dp104
sI97
(dp105
sI98
(dp106
sI99
(dp107
sI100
(dp108
sI101
(dp109
sI102
(dp110
sI103
(dp111
sI104
(dp112
sI105
(dp113
sI106
(dp114
sI107
(dp115
sI108
(dp116
sI109
(dp117
sI110
(dp118
sI111
(dp119
sI112
(dp120
sI113
(dp121
sI114
(dp122
sI115
(dp123
sI116
(dp124
sI117
(dp125
sI118
(dp126
sI119
(dp127
sI120
(dp128
sI121
(dp129
sI122
(dp130
sI123
(dp131
sI124
(dp132
sI125
(dp133
sI126
(dp134
sI127
(dp135
sI128
(dp136
sI129
(dp137
sI130
(dp138
sI131
(dp139
sI132
(dp140
sI133
(dp141
sI134
(dp142
sI135
(dp143
sI136
(dp144
sI137
(dp145
sI138
(dp146
sI139
(dp147
sI140
(dp148
sI141
(dp149
sI142
(dp150
sI143
(dp151
sI144
(dp152
sI145
(dp153
sI146
(dp154
sI147
(dp155
sI148
(dp156
sI149
(dp157
sI150
(dp158
sI151
(dp159
sI152
(dp160
sI153
(dp161
sI154
(dp162
sI155
(dp163
sI156
(dp164
sI157
(dp165
sI158
(dp166
sI159
(dp167
sI160
(dp168
sI161
(dp169
sI162
(dp170
sI163
(dp171
sI164
(dp172
sI165
(dp173
sI166
(dp174
sI167
(dp175
sI168
(dp176
sI169
(dp177
sI170
(dp178
sI171
(dp179
sI172
(dp180
sI173
(dp181
sI174
(dp182
sI175
(dp183
sI176
(dp184
sI177
(dp185
sI178
(dp186
sI179
(dp187
sI180
(dp188
sI181
(dp189
sI182
(dp190
sI183
(dp191
sI184
(dp192
sI185
(dp193
sI186
(dp194
sI187
(dp195
sI188
(dp196
sI189
(dp197
sI190
(dp198
sI191
(dp199
sI192
(dp200
sI193
(dp201
sI194
(dp202
sI195
(dp203
sI196
(dp204
sI197
(dp205
sI198
(dp206
sI199
(dp207
sI200
(dp208
ssS'node_dict_factory'
p209
c__builtin__
dict
p210
sS'edge_attr_dict_factory'
p211
g210
sS'edge'
p212
(dp213
I1
(dp214
I132
(dp215
sI133
(dp216
sI134
(dp217
sI136
(dp218
sI141
(dp219
sI18
(dp220
sI147
(dp221
sI157
(dp222
sI159
(dp223
sI162
(dp224
sI167
(dp225
sI168
(dp226
sI42
(dp227
sI44
(dp228
sI173
(dp229
sI29
(dp230
sI177
(dp231
sI190
(dp232
sI101
(dp233
sI111
(dp234
sI119
(dp235
sI125
(dp236
sI126
(dp237
ssI2
(dp238
I32
(dp239
sI163
(dp240
sI165
(dp241
sI102
(dp242
sI8
(dp243
sI105
(dp244
sI106
(dp245
sI171
(dp246
sI45
(dp247
sI142
(dp248
sI144
(dp249
sI148
(dp250
sI23
(dp251
sI121
(dp252
sI122
(dp253
ssI3
(dp254
I129
(dp255
sI115
(dp256
sI165
(dp257
sI102
(dp258
sI103
(dp259
sI200
(dp260
sI9
(dp261
sI106
(dp262
sI140
(dp263
sI174
(dp264
sI47
(dp265
sI112
(dp266
sI49
(dp267
sI114
(dp268
sI147
(dp269
sI110
(dp270
sI22
(dp271
sI120
(dp272
sI122
(dp273
sI155
(dp274
sI124
(dp275
ssI4
(dp276
I28
(dp277
sI13
(dp278
sI46
(dp279
sI37
(dp280
ssI5
(dp281
I161
(dp282
sI110
(dp283
sI79
(dp284
sI82
(dp285
sI179
(dp286
sI186
(dp287
sI78
(dp288
sI86
(dp289
sI119
(dp290
sI120
(dp291
sI154
(dp292
sI188
(dp293
sI157
(dp294
ssI6
(dp295
I192
(dp296
sI34
(dp297
sI195
(dp298
sI132
(dp299
sI133
(dp300
sI134
(dp301
sI106
(dp302
sI66
(dp303
sI173
(dp304
sI157
(dp305
sI114
(dp306
sI138
(dp307
sI26
(dp308
sI143
(dp309
sI58
(dp310
sI182
(dp311
ssI7
(dp312
I65
(dp313
sI162
(dp314
sI164
(dp315
sI132
(dp316
sI133
(dp317
sI198
(dp318
sI167
(dp319
sI41
(dp320
sI109
(dp321
sI110
(dp322
sI144
(dp323
sI145
(dp324
sI114
(dp325
sI147
(dp326
sI124
(dp327
sI24
(dp328
sI120
(dp329
sI187
(dp330
sI166
(dp331
sI157
(dp332
sI31
(dp333
ssI8
(dp334
I129
(dp335
sI2
g243
sI107
(dp336
sI193
(dp337
sI40
(dp338
sI145
(dp339
sI171
(dp340
sI45
(dp341
sI174
(dp342
sI111
(dp343
sI112
(dp344
sI81
(dp345
sI115
(dp346
sI119
(dp347
sI121
(dp348
sI124
(dp349
sI189
(dp350
sI191
(dp351
ssI9
(dp352
I162
(dp353
sI3
g261
sI166
(dp354
sI102
(dp355
sI103
(dp356
sI138
(dp357
sI190
(dp358
sI191
(dp359
sI47
(dp360
sI144
(dp361
sI49
(dp362
sI116
(dp363
sI181
(dp364
sI22
(dp365
sI119
(dp366
sI120
(dp367
sI122
(dp368
sI184
(dp369
sI158
(dp370
sI127
(dp371
ssI10
(dp372
I97
(dp373
sI98
(dp374
sI123
(dp375
sI100
(dp376
sI129
(dp377
sI107
(dp378
sI142
(dp379
sI155
(dp380
sI125
(dp381
sI94
(dp382
ssI11
(dp383
I192
(dp384
sI133
(dp385
sI71
(dp386
sI73
(dp387
sI103
(dp388
sI141
(dp389
sI16
(dp390
sI178
(dp391
sI84
(dp392
sI151
(dp393
sI121
(dp394
sI135
(dp395
sI165
(dp396
ssI12
(dp397
I192
(dp398
sI162
(dp399
sI71
(dp400
sI73
(dp401
sI172
(dp402
sI124
(dp403
sI179
(dp404
sI84
(dp405
sI181
(dp406
sI54
(dp407
sI105
(dp408
sI153
(dp409
sI116
(dp410
sI188
(dp411
sI191
(dp412
ssI13
(dp413
I30
(dp414
sI4
g278
sI37
(dp415
sI46
(dp416
ssI14
(dp417
I149
(dp418
sI67
(dp419
sI133
(dp420
sI134
(dp421
sI74
(dp422
sI182
(dp423
sI174
(dp424
sI190
(dp425
sI144
(dp426
sI53
(dp427
sI118
(dp428
sI156
(dp429
sI189
(dp430
sI158
(dp431
sI95
(dp432
ssI15
(dp433
I34
(dp434
sI166
(dp435
sI103
(dp436
sI171
(dp437
sI140
(dp438
sI66
(dp439
sI174
(dp440
sI145
(dp441
sI178
(dp442
sI118
(dp443
sI26
(dp444
sI156
(dp445
sI58
(dp446
sI126
(dp447
sI191
(dp448
ssI16
(dp449
I129
(dp450
sI171
(dp451
sI133
(dp452
sI134
(dp453
sI71
(dp454
sI11
g390
sI140
(dp455
sI144
(dp456
sI178
(dp457
sI115
(dp458
sI84
(dp459
sI54
(dp460
sI180
(dp461
sI135
(dp462
ssI17
(dp463
I80
(dp464
sI89
(dp465
sI47
(dp466
sI87
(dp467
ssI18
(dp468
I1
g220
sI131
(dp469
sI140
(dp470
sI142
(dp471
sI144
(dp472
sI145
(dp473
sI29
(dp474
sI161
(dp475
sI165
(dp476
sI166
(dp477
sI42
(dp478
sI44
(dp479
sI173
(dp480
sI174
(dp481
sI177
(dp482
sI180
(dp483
sI182
(dp484
sI184
(dp485
sI187
(dp486
sI190
(dp487
sI197
(dp488
sI198
(dp489
sI199
(dp490
sI111
(dp491
sI114
(dp492
sI115
(dp493
sI121
(dp494
sI124
(dp495
ssI19
(dp496
I193
(dp497
sI67
(dp498
sI132
(dp499
sI166
(dp500
sI168
(dp501
sI109
(dp502
sI141
(dp503
sI178
(dp504
sI195
(dp505
sI116
(dp506
sI25
(dp507
sI159
(dp508
sI62
(dp509
sI95
(dp510
ssI20
(dp511
I132
(dp512
sI133
(dp513
sI145
(dp514
sI149
(dp515
sI24
(dp516
sI33
(dp517
sI163
(dp518
sI167
(dp519
sI41
(dp520
sI199
(dp521
sI172
(dp522
sI174
(dp523
sI186
(dp524
sI65
(dp525
sI161
(dp526
sI101
(dp527
sI102
(dp528
sI105
(dp529
sI109
(dp530
sI112
(dp531
sI116
(dp532
sI120
(dp533
ssI21
(dp534
I178
(dp535
sI102
(dp536
sI71
(dp537
sI73
(dp538
sI106
(dp539
sI135
(dp540
sI173
(dp541
sI114
(dp542
sI147
(dp543
sI84
(dp544
sI54
(dp545
sI105
(dp546
sI120
(dp547
sI180
(dp548
sI155
(dp549
sI188
(dp550
ssI22
(dp551
I3
g271
sI9
g365
sI140
(dp552
sI144
(dp553
sI145
(dp554
sI148
(dp555
sI156
(dp556
sI167
(dp557
sI172
(dp558
sI47
(dp559
sI49
(dp560
sI178
(dp561
sI182
(dp562
sI186
(dp563
sI189
(dp564
sI193
(dp565
sI194
(dp566
sI195
(dp567
sI198
(dp568
sI101
(dp569
sI103
(dp570
sI112
(dp571
sI120
(dp572
sI122
(dp573
sI123
(dp574
ssI23
(dp575
I32
(dp576
sI2
g251
sI163
(dp577
sI135
(dp578
sI40
(dp579
sI194
(dp580
sI187
(dp581
sI183
(dp582
sI45
(dp583
sI142
(dp584
sI145
(dp585
sI147
(dp586
sI174
(dp587
sI151
(dp588
sI191
(dp589
sI153
(dp590
sI155
(dp591
sI126
(dp592
sI149
(dp593
ssI24
(dp594
I192
(dp595
sI33
(dp596
sI198
(dp597
sI65
(dp598
sI136
(dp599
sI7
g328
sI140
(dp600
sI110
(dp601
sI143
(dp602
sI20
g516
sI142
(dp603
sI120
(dp604
sI189
(dp605
sI190
(dp606
sI149
(dp607
ssI25
(dp608
I67
(dp609
sI131
(dp610
sI101
(dp611
sI198
(dp612
sI103
(dp613
sI74
(dp614
sI171
(dp615
sI140
(dp616
sI173
(dp617
sI174
(dp618
sI19
g507
sI181
(dp619
sI184
(dp620
sI127
(dp621
sI123
(dp622
sI95
(dp623
ssI26
(dp624
I133
(dp625
sI6
g308
sI136
(dp626
sI140
(dp627
sI142
(dp628
sI15
g444
sI144
(dp629
sI151
(dp630
sI157
(dp631
sI177
(dp632
sI184
(dp633
sI186
(dp634
sI192
(dp635
sI66
(dp636
sI198
(dp637
sI58
(dp638
sI106
(dp639
sI107
(dp640
sI116
(dp641
sI118
(dp642
sI123
(dp643
sI125
(dp644
ssI27
(dp645
I98
(dp646
sI99
(dp647
sI100
(dp648
sI168
(dp649
sI138
(dp650
sI162
(dp651
sI142
(dp652
sI115
(dp653
sI182
(dp654
sI90
(dp655
sI187
(dp656
sI124
(dp657
ssI28
(dp658
I30
(dp659
sI4
g277
sI37
(dp660
sI46
(dp661
ssI29
(dp662
I1
g230
sI136
(dp663
sI142
(dp664
sI18
g474
sI147
(dp665
sI153
(dp666
sI154
(dp667
sI156
(dp668
sI158
(dp669
sI159
(dp670
sI161
(dp671
sI164
(dp672
sI42
(dp673
sI44
(dp674
sI183
(dp675
sI199
(dp676
sI102
(dp677
sI103
(dp678
sI106
(dp679
sI109
(dp680
sI114
(dp681
sI116
(dp682
sI122
(dp683
sI124
(dp684
ssI30
(dp685
I28
g659
sI13
g414
sI46
(dp686
sI37
(dp687
ssI31
(dp688
I65
(dp689
sI7
g333
sI41
(dp690
sI106
(dp691
sI140
(dp692
sI142
(dp693
sI143
(dp694
sI108
(dp695
sI120
(dp696
sI186
(dp697
sI123
(dp698
sI156
(dp699
sI125
(dp700
sI158
(dp701
ssI32
(dp702
I2
g239
sI138
(dp703
sI141
(dp704
sI142
(dp705
sI143
(dp706
sI147
(dp707
sI149
(dp708
sI23
g576
sI158
(dp709
sI159
(dp710
sI162
(dp711
sI164
(dp712
sI40
(dp713
sI45
(dp714
sI180
(dp715
sI183
(dp716
sI186
(dp717
sI192
(dp718
sI194
(dp719
sI195
(dp720
sI101
(dp721
sI115
(dp722
sI122
(dp723
sI123
(dp724
sI125
(dp725
ssI33
(dp726
I65
(dp727
sI194
(dp728
sI195
(dp729
sI132
(dp730
sI102
(dp731
sI199
(dp732
sI168
(dp733
sI41
(dp734
sI106
(dp735
sI190
(dp736
sI144
(dp737
sI200
(dp738
sI20
g517
sI149
(dp739
sI24
g596
sI153
(dp740
sI122
(dp741
sI126
(dp742
sI159
(dp743
ssI34
(dp744
I192
(dp745
sI193
(dp746
sI66
(dp747
sI163
(dp748
sI165
(dp749
sI6
g297
sI167
(dp750
sI161
(dp751
sI106
(dp752
sI171
(dp753
sI188
(dp754
sI15
g434
sI112
(dp755
sI83
(dp756
sI153
(dp757
sI58
(dp758
sI191
(dp759
sI144
(dp760
sI138
(dp761
sI126
(dp762
sI198
(dp763
ssI35
(dp764
I64
(dp765
sI81
(dp766
sI87
(dp767
sI68
(dp768
sI89
(dp769
ssI36
(dp770
I194
(dp771
sI67
(dp772
sI103
(dp773
sI124
(dp774
sI74
(dp775
sI158
(dp776
sI115
(dp777
sI131
(dp778
sI180
(dp779
sI53
(dp780
sI183
(dp781
sI120
(dp782
sI159
(dp783
sI117
(dp784
sI138
(dp785
sI62
(dp786
sI95
(dp787
ssI37
(dp788
I28
g660
sI46
(dp789
sI4
g280
sI13
g415
sI30
g687
ssI38
(dp790
I192
(dp791
sI101
(dp792
sI134
(dp793
sI138
(dp794
sI171
(dp795
sI77
(dp796
sI79
(dp797
sI189
(dp798
sI82
(dp799
sI83
(dp800
sI180
(dp801
sI181
(dp802
sI86
(dp803
sI151
(dp804
sI153
(dp805
sI122
(dp806
sI187
(dp807
sI118
(dp808
ssI39
(dp809
I96
(dp810
sI69
(dp811
sI166
(dp812
sI199
(dp813
sI172
(dp814
sI106
(dp815
sI107
(dp816
sI76
(dp817
sI174
(dp818
sI144
(dp819
sI178
(dp820
sI115
(dp821
sI52
(dp822
sI85
(dp823
sI123
(dp824
sI127
(dp825
ssI40
(dp826
I32
g713
sI134
(dp827
sI102
(dp828
sI167
(dp829
sI8
g338
sI105
(dp830
sI171
(dp831
sI45
(dp832
sI173
(dp833
sI147
(dp834
sI117
(dp835
sI118
(dp836
sI23
g579
sI153
(dp837
sI154
(dp838
sI93
(dp839
ssI41
(dp840
I129
(dp841
sI133
(dp842
sI193
(dp843
sI145
(dp844
sI20
g520
sI149
(dp845
sI151
(dp846
sI31
g690
sI33
g734
sI162
(dp847
sI167
(dp848
sI7
g320
sI173
(dp849
sI191
(dp850
sI192
(dp851
sI65
(dp852
sI108
(dp853
sI109
(dp854
sI110
(dp855
sI111
(dp856
sI114
(dp857
sI120
(dp858
ssI42
(dp859
I1
g227
sI100
(dp860
sI129
(dp861
sI200
(dp862
sI105
(dp863
sI199
(dp864
sI44
(dp865
sI173
(dp866
sI174
(dp867
sI157
(dp868
sI124
(dp869
sI18
g478
sI179
(dp870
sI116
(dp871
sI149
(dp872
sI122
(dp873
sI123
(dp874
sI135
(dp875
sI29
g673
sI158
(dp876
ssI43
(dp877
I129
(dp878
sI131
(dp879
sI133
(dp880
sI198
(dp881
sI200
(dp882
sI156
(dp883
sI173
(dp884
sI109
(dp885
sI112
(dp886
sI88
(dp887
sI115
(dp888
sI121
(dp889
sI56
(dp890
sI153
(dp891
sI91
(dp892
sI92
(dp893
sI93
(dp894
ssI44
(dp895
I1
g228
sI134
(dp896
sI70
(dp897
sI103
(dp898
sI42
g865
sI135
(dp899
sI108
(dp900
sI142
(dp901
sI111
(dp902
sI144
(dp903
sI18
g479
sI180
(dp904
sI120
(dp905
sI187
(dp906
sI29
g674
ssI45
(dp907
I32
g714
sI192
(dp908
sI2
g247
sI166
(dp909
sI129
(dp910
sI8
g341
sI161
(dp911
sI138
(dp912
sI167
(dp913
sI194
(dp914
sI190
(dp915
sI144
(dp916
sI40
g832
sI181
(dp917
sI23
g583
sI168
(dp918
sI151
(dp919
sI126
(dp920
ssI46
(dp921
I28
g661
sI4
g279
sI13
g416
sI30
g686
sI37
g789
ssI47
(dp922
I3
g265
sI134
(dp923
sI9
g360
sI138
(dp924
sI140
(dp925
sI17
g466
sI131
(dp926
sI22
g559
sI154
(dp927
sI157
(dp928
sI166
(dp929
sI167
(dp930
sI172
(dp931
sI49
(dp932
sI179
(dp933
sI181
(dp934
sI189
(dp935
sI199
(dp936
sI145
(dp937
sI105
(dp938
sI108
(dp939
sI116
(dp940
sI119
(dp941
ssI48
(dp942
I80
(dp943
sI81
(dp944
sI87
(dp945
sI68
(dp946
sI89
(dp947
ssI49
(dp948
I3
g267
sI9
g362
sI140
(dp949
sI142
(dp950
sI144
(dp951
sI145
(dp952
sI22
g560
sI161
(dp953
sI164
(dp954
sI172
(dp955
sI47
g932
sI181
(dp956
sI182
(dp957
sI184
(dp958
sI58
(dp959
sI197
(dp960
sI186
(dp961
sI101
(dp962
sI102
(dp963
sI103
(dp964
sI109
(dp965
sI111
(dp966
sI117
(dp967
sI118
(dp968
sI121
(dp969
sI124
(dp970
ssI50
(dp971
I96
(dp972
sI195
(dp973
sI132
(dp974
sI70
(dp975
sI135
(dp976
sI168
(dp977
sI172
(dp978
sI75
(dp979
sI76
(dp980
sI143
(dp981
sI147
(dp982
sI148
(dp983
sI85
(dp984
sI182
(dp985
sI120
(dp986
sI191
(dp987
ssI51
(dp988
I131
(dp989
sI147
(dp990
sI73
(dp991
sI140
(dp992
sI78
(dp993
sI190
(dp994
sI82
(dp995
sI83
(dp996
sI149
(dp997
sI86
(dp998
sI122
(dp999
sI155
(dp1000
sI156
(dp1001
sI158
(dp1002
ssI52
(dp1003
I96
(dp1004
sI192
(dp1005
sI69
(dp1006
sI70
(dp1007
sI39
g822
sI136
(dp1008
sI75
(dp1009
sI191
(dp1010
sI178
(dp1011
sI147
(dp1012
sI148
(dp1013
sI85
(dp1014
sI103
(dp1015
sI199
(dp1016
sI127
(dp1017
ssI53
(dp1018
I129
(dp1019
sI36
g780
sI133
(dp1020
sI74
(dp1021
sI127
(dp1022
sI14
g427
sI144
(dp1023
sI178
(dp1024
sI180
(dp1025
sI120
(dp1026
sI122
(dp1027
sI63
(dp1028
sI62
(dp1029
sI95
(dp1030
ssI54
(dp1031
I161
(dp1032
sI195
(dp1033
sI165
(dp1034
sI166
(dp1035
sI71
(dp1036
sI73
(dp1037
sI138
(dp1038
sI107
(dp1039
sI12
g407
sI16
g460
sI140
(dp1040
sI115
(dp1041
sI84
(dp1042
sI21
g545
sI154
(dp1043
sI149
(dp1044
ssI55
(dp1045
I97
(dp1046
sI98
(dp1047
sI99
(dp1048
sI100
(dp1049
sI133
(dp1050
sI129
(dp1051
sI103
(dp1052
sI174
(dp1053
sI112
(dp1054
sI190
(dp1055
sI164
(dp1056
sI90
(dp1057
sI154
(dp1058
sI94
(dp1059
sI191
(dp1060
ssI56
(dp1061
I129
(dp1062
sI107
(dp1063
sI132
(dp1064
sI101
(dp1065
sI134
(dp1066
sI72
(dp1067
sI43
g890
sI123
(dp1068
sI149
(dp1069
sI88
(dp1070
sI91
(dp1071
sI92
(dp1072
sI93
(dp1073
ssI57
(dp1074
I97
(dp1075
sI98
(dp1076
sI99
(dp1077
sI100
(dp1078
sI129
(dp1079
sI107
(dp1080
sI114
(dp1081
sI149
(dp1082
sI90
(dp1083
sI157
(dp1084
sI94
(dp1085
ssI58
(dp1086
I66
(dp1087
sI186
(dp1088
sI102
(dp1089
sI6
g310
sI103
(dp1090
sI105
(dp1091
sI119
(dp1092
sI172
(dp1093
sI34
g758
sI110
(dp1094
sI15
g446
sI141
(dp1095
sI49
g959
sI148
(dp1096
sI182
(dp1097
sI151
(dp1098
sI26
g638
sI118
(dp1099
sI134
(dp1100
ssI59
(dp1101
I187
(dp1102
sI103
(dp1103
sI72
(dp1104
sI156
(dp1105
sI138
(dp1106
sI119
(dp1107
sI159
(dp1108
sI111
(dp1109
sI117
(dp1110
sI183
(dp1111
sI88
(dp1112
sI153
(dp1113
sI91
(dp1114
sI92
(dp1115
sI93
(dp1116
sI158
(dp1117
sI63
(dp1118
ssI60
(dp1119
I96
(dp1120
sI133
(dp1121
sI163
(dp1122
sI69
(dp1123
sI70
(dp1124
sI168
(dp1125
sI105
(dp1126
sI75
(dp1127
sI76
(dp1128
sI109
(dp1129
sI112
(dp1130
sI85
(dp1131
sI166
(dp1132
sI125
(dp1133
sI165
(dp1134
ssI61
(dp1135
I97
(dp1136
sI98
(dp1137
sI99
(dp1138
sI100
(dp1139
sI103
(dp1140
sI168
(dp1141
sI111
(dp1142
sI144
(dp1143
sI116
(dp1144
sI120
(dp1145
sI90
(dp1146
sI186
(dp1147
sI94
(dp1148
ssI62
(dp1149
I67
(dp1150
sI36
g786
sI166
(dp1151
sI136
(dp1152
sI74
(dp1153
sI171
(dp1154
sI111
(dp1155
sI19
g509
sI53
g1029
sI118
(dp1156
sI184
(dp1157
sI153
(dp1158
sI122
(dp1159
sI95
(dp1160
ssI63
(dp1161
I193
(dp1162
sI59
g1118
sI101
(dp1163
sI134
(dp1164
sI167
(dp1165
sI200
(dp1166
sI143
(dp1167
sI109
(dp1168
sI173
(dp1169
sI177
(dp1170
sI53
g1028
sI88
(dp1171
sI91
(dp1172
sI92
(dp1173
sI93
(dp1174
sI149
(dp1175
ssI64
(dp1176
I35
g765
sI68
(dp1177
sI80
(dp1178
sI81
(dp1179
sI87
(dp1180
sI89
(dp1181
ssI65
(dp1182
I131
(dp1183
sI134
(dp1184
sI7
g313
sI147
(dp1185
sI20
g525
sI24
g598
sI31
g689
sI33
g727
sI163
(dp1186
sI164
(dp1187
sI166
(dp1188
sI41
g852
sI174
(dp1189
sI184
(dp1190
sI159
(dp1191
sI188
(dp1192
sI189
(dp1193
sI198
(dp1194
sI105
(dp1195
sI106
(dp1196
sI109
(dp1197
sI112
(dp1198
sI114
(dp1199
sI118
(dp1200
ssI66
(dp1201
I129
(dp1202
sI34
g747
sI166
(dp1203
sI6
g303
sI162
(dp1204
sI200
(dp1205
sI194
(dp1206
sI122
(dp1207
sI107
(dp1208
sI108
(dp1209
sI77
(dp1210
sI15
g439
sI141
(dp1211
sI156
(dp1212
sI147
(dp1213
sI181
(dp1214
sI118
(dp1215
sI26
g636
sI124
(dp1216
sI58
g1087
sI159
(dp1217
ssI67
(dp1218
I131
(dp1219
sI36
g772
sI101
(dp1220
sI134
(dp1221
sI74
(dp1222
sI141
(dp1223
sI14
g419
sI19
g498
sI180
(dp1224
sI149
(dp1225
sI118
(dp1226
sI25
g609
sI186
(dp1227
sI62
g1150
sI95
(dp1228
ssI68
(dp1229
I64
g1177
sI80
(dp1230
sI35
g768
sI48
g946
sI81
(dp1231
sI87
(dp1232
sI89
(dp1233
ssI69
(dp1234
I96
(dp1235
sI70
(dp1236
sI39
g811
sI75
(dp1237
sI145
(dp1238
sI179
(dp1239
sI52
g1006
sI85
(dp1240
sI120
(dp1241
sI154
(dp1242
sI60
g1123
ssI70
(dp1243
I129
(dp1244
sI142
(dp1245
sI151
(dp1246
sI158
(dp1247
sI197
(dp1248
sI164
(dp1249
sI44
g897
sI174
(dp1250
sI50
g975
sI52
g1007
sI184
(dp1251
sI187
(dp1252
sI60
g1124
sI191
(dp1253
sI69
g1236
sI76
(dp1254
sI96
(dp1255
sI101
(dp1256
sI106
(dp1257
sI111
(dp1258
sI114
(dp1259
sI127
(dp1260
ssI71
(dp1261
I144
(dp1262
sI107
(dp1263
sI73
(dp1264
sI11
g386
sI12
g400
sI111
(dp1265
sI16
g454
sI145
(dp1266
sI84
(dp1267
sI21
g537
sI54
g1036
sI153
(dp1268
sI123
(dp1269
sI189
(dp1270
sI126
(dp1271
sI149
(dp1272
ssI72
(dp1273
I59
g1104
sI198
(dp1274
sI145
(dp1275
sI177
(dp1276
sI88
(dp1277
sI182
(dp1278
sI87
(dp1279
sI56
g1067
sI121
(dp1280
sI91
(dp1281
sI92
(dp1282
sI93
(dp1283
sI158
(dp1284
ssI73
(dp1285
I131
(dp1286
sI132
(dp1287
sI133
(dp1288
sI134
(dp1289
sI135
(dp1290
sI11
g387
sI12
g401
sI141
(dp1291
sI21
g538
sI162
(dp1292
sI177
(dp1293
sI51
g991
sI54
g1037
sI184
(dp1294
sI71
g1264
sI200
(dp1295
sI84
(dp1296
sI103
(dp1297
sI110
(dp1298
sI119
(dp1299
sI123
(dp1300
sI125
(dp1301
ssI74
(dp1302
I129
(dp1303
sI67
g1222
sI36
g775
sI102
(dp1304
sI126
(dp1305
sI14
g422
sI178
(dp1306
sI147
(dp1307
sI53
g1021
sI120
(dp1308
sI25
g614
sI181
(dp1309
sI62
g1153
sI95
(dp1310
ssI75
(dp1311
I96
(dp1312
sI129
(dp1313
sI163
(dp1314
sI164
(dp1315
sI69
g1237
sI167
(dp1316
sI140
(dp1317
sI106
(dp1318
sI171
(dp1319
sI76
(dp1320
sI177
(dp1321
sI50
g979
sI52
g1009
sI85
(dp1322
sI60
g1127
sI190
(dp1323
sI159
(dp1324
ssI76
(dp1325
I96
(dp1326
sI198
(dp1327
sI70
g1254
sI39
g817
sI124
(dp1328
sI75
g1320
sI172
(dp1329
sI110
(dp1330
sI174
(dp1331
sI50
g980
sI116
(dp1332
sI85
(dp1333
sI183
(dp1334
sI60
g1128
sI199
(dp1335
ssI77
(dp1336
I66
g1210
sI134
(dp1337
sI38
g796
sI103
(dp1338
sI107
(dp1339
sI140
(dp1340
sI141
(dp1341
sI78
(dp1342
sI79
(dp1343
sI82
(dp1344
sI83
(dp1345
sI86
(dp1346
sI167
(dp1347
sI157
(dp1348
sI191
(dp1349
ssI78
(dp1350
I129
(dp1351
sI5
g288
sI140
(dp1352
sI141
(dp1353
sI147
(dp1354
sI164
(dp1355
sI172
(dp1356
sI51
g993
sI184
(dp1357
sI77
g1342
sI79
(dp1358
sI82
(dp1359
sI83
(dp1360
sI86
(dp1361
sI101
(dp1362
sI107
(dp1363
sI108
(dp1364
sI115
(dp1365
sI118
(dp1366
sI120
(dp1367
sI122
(dp1368
sI123
(dp1369
ssI79
(dp1370
I129
(dp1371
sI5
g284
sI135
(dp1372
sI142
(dp1373
sI147
(dp1374
sI151
(dp1375
sI163
(dp1376
sI165
(dp1377
sI38
g797
sI197
(dp1378
sI198
(dp1379
sI77
g1343
sI78
g1358
sI82
(dp1380
sI83
(dp1381
sI86
(dp1382
sI102
(dp1383
sI103
(dp1384
sI105
(dp1385
sI115
(dp1386
sI117
(dp1387
sI119
(dp1388
sI120
(dp1389
sI125
(dp1390
ssI80
(dp1391
I64
g1178
sI68
g1230
sI81
(dp1392
sI48
g943
sI17
g464
sI87
(dp1393
sI88
(dp1394
sI89
(dp1395
ssI81
(dp1396
I64
g1179
sI80
g1392
sI35
g766
sI68
g1231
sI8
g345
sI48
g944
sI87
(dp1397
sI89
(dp1398
ssI82
(dp1399
I193
(dp1400
sI83
(dp1401
sI164
(dp1402
sI5
g285
sI38
g799
sI161
(dp1403
sI168
(dp1404
sI77
g1344
sI78
g1359
sI79
g1380
sI157
(dp1405
sI51
g995
sI142
(dp1406
sI86
(dp1407
sI118
(dp1408
sI158
(dp1409
sI149
(dp1410
ssI83
(dp1411
I34
g756
sI195
(dp1412
sI114
(dp1413
sI38
g800
sI167
(dp1414
sI109
(dp1415
sI77
g1345
sI78
g1360
sI79
g1381
sI173
(dp1416
sI82
g1401
sI51
g996
sI180
(dp1417
sI181
(dp1418
sI86
(dp1419
sI151
(dp1420
sI159
(dp1421
ssI84
(dp1422
I144
(dp1423
sI177
(dp1424
sI102
(dp1425
sI134
(dp1426
sI71
g1267
sI136
(dp1427
sI73
g1296
sI11
g392
sI12
g405
sI112
(dp1428
sI16
g459
sI168
(dp1429
sI159
(dp1430
sI147
(dp1431
sI21
g544
sI54
g1042
sI120
(dp1432
sI187
(dp1433
sI92
(dp1434
sI167
(dp1435
sI101
(dp1436
ssI85
(dp1437
I96
(dp1438
sI107
(dp1439
sI69
g1240
sI39
g823
sI156
(dp1440
sI75
g1322
sI76
g1333
sI157
(dp1441
sI189
(dp1442
sI50
g984
sI52
g1014
sI186
(dp1443
sI60
g1131
sI167
(dp1444
sI126
(dp1445
sI165
(dp1446
ssI86
(dp1447
I83
g1419
sI131
(dp1448
sI5
g289
sI38
g803
sI103
(dp1449
sI171
(dp1450
sI77
g1346
sI78
g1361
sI79
g1382
sI145
(dp1451
sI82
g1407
sI51
g998
sI180
(dp1452
sI89
(dp1453
sI143
(dp1454
sI158
(dp1455
ssI87
(dp1456
I64
g1180
sI80
g1393
sI35
g767
sI68
g1232
sI81
g1397
sI72
g1279
sI48
g945
sI17
g467
sI89
(dp1457
ssI88
(dp1458
I91
(dp1459
sI145
(dp1460
sI72
g1277
sI43
g887
sI189
(dp1461
sI80
g1394
sI136
(dp1462
sI147
(dp1463
sI171
(dp1464
sI56
g1070
sI121
(dp1465
sI122
(dp1466
sI59
g1112
sI92
(dp1467
sI93
(dp1468
sI126
(dp1469
sI63
g1171
ssI89
(dp1470
I64
g1181
sI80
g1395
sI35
g769
sI68
g1233
sI81
g1398
sI48
g947
sI17
g465
sI86
g1453
sI87
g1457
ssI90
(dp1471
I97
(dp1472
sI98
(dp1473
sI99
(dp1474
sI100
(dp1475
sI163
(dp1476
sI166
(dp1477
sI135
(dp1478
sI136
(dp1479
sI106
(dp1480
sI171
(dp1481
sI115
(dp1482
sI195
(dp1483
sI155
(dp1484
sI187
(dp1485
sI55
g1057
sI120
(dp1486
sI57
g1083
sI27
g655
sI61
g1146
sI94
(dp1487
ssI91
(dp1488
I97
(dp1489
sI132
(dp1490
sI165
(dp1491
sI166
(dp1492
sI72
g1281
sI43
g892
sI157
(dp1493
sI88
g1459
sI149
(dp1494
sI56
g1071
sI59
g1114
sI92
(dp1495
sI93
(dp1496
sI63
g1172
ssI92
(dp1497
I91
g1495
sI133
(dp1498
sI166
(dp1499
sI72
g1282
sI43
g893
sI180
(dp1500
sI144
(dp1501
sI88
g1467
sI131
(dp1502
sI84
g1434
sI171
(dp1503
sI118
(dp1504
sI56
g1072
sI148
(dp1505
sI154
(dp1506
sI59
g1115
sI93
(dp1507
sI63
g1173
ssI93
(dp1508
I91
g1496
sI179
(dp1509
sI40
g839
sI106
(dp1510
sI43
g894
sI159
(dp1511
sI72
g1283
sI147
(dp1512
sI118
(dp1513
sI119
(dp1514
sI56
g1073
sI88
g1468
sI59
g1116
sI92
g1507
sI63
g1174
ssI94
(dp1515
I97
(dp1516
sI98
(dp1517
sI99
(dp1518
sI100
(dp1519
sI134
(dp1520
sI10
g382
sI132
(dp1521
sI142
(dp1522
sI125
(dp1523
sI131
(dp1524
sI116
(dp1525
sI55
g1059
sI57
g1085
sI90
g1487
sI187
(dp1526
sI156
(dp1527
sI61
g1148
sI158
(dp1528
ssI95
(dp1529
I67
g1228
sI36
g787
sI101
(dp1530
sI195
(dp1531
sI167
(dp1532
sI74
g1310
sI173
(dp1533
sI14
g432
sI109
(dp1534
sI99
(dp1535
sI19
g510
sI53
g1030
sI25
g623
sI62
g1160
ssI96
(dp1536
I192
(dp1537
sI198
(dp1538
sI194
(dp1539
sI164
(dp1540
sI69
g1235
sI70
g1255
sI39
g810
sI124
(dp1541
sI138
(dp1542
sI75
g1312
sI76
g1326
sI173
(dp1543
sI50
g972
sI115
(dp1544
sI52
g1004
sI85
g1438
sI187
(dp1545
sI60
g1120
sI189
(dp1546
sI126
(dp1547
ssI97
(dp1548
I147
(dp1549
sI98
(dp1550
sI99
(dp1551
sI100
(dp1552
sI133
(dp1553
sI136
(dp1554
sI10
g373
sI119
(dp1555
sI174
(dp1556
sI163
(dp1557
sI148
(dp1558
sI106
(dp1559
sI55
g1046
sI184
(dp1560
sI57
g1075
sI90
g1472
sI91
g1489
sI61
g1136
sI94
g1516
sI149
(dp1561
ssI98
(dp1562
I97
g1550
sI99
(dp1563
sI100
(dp1564
sI136
(dp1565
sI10
g374
sI171
(dp1566
sI141
(dp1567
sI125
(dp1568
sI116
(dp1569
sI55
g1047
sI57
g1076
sI90
g1473
sI27
g646
sI61
g1137
sI94
g1517
ssI99
(dp1570
I97
g1551
sI98
g1563
sI131
(dp1571
sI100
(dp1572
sI136
(dp1573
sI106
(dp1574
sI177
(dp1575
sI158
(dp1576
sI55
g1048
sI57
g1077
sI90
g1474
sI27
g647
sI61
g1138
sI94
g1518
sI95
g1535
ssI100
(dp1577
I129
(dp1578
sI10
g376
sI27
g648
sI165
(dp1579
sI42
g860
sI172
(dp1580
sI174
(dp1581
sI55
g1049
sI57
g1078
sI61
g1139
sI193
(dp1582
sI198
(dp1583
sI200
(dp1584
sI90
g1475
sI94
g1519
sI97
g1552
sI98
g1564
sI99
g1572
sI101
(dp1585
sI106
(dp1586
sI110
(dp1587
sI115
(dp1588
ssI101
(dp1589
I32
g721
sI129
(dp1590
sI67
g1220
sI100
g1585
sI22
g569
sI38
g792
sI1
g233
sI84
g1436
sI142
(dp1591
sI144
(dp1592
sI49
g962
sI20
g527
sI78
g1362
sI118
(dp1593
sI56
g1065
sI25
g611
sI95
g1530
sI70
g1256
sI63
g1163
ssI102
(dp1594
I33
g731
sI2
g242
sI3
g258
sI132
(dp1595
sI49
g963
sI40
g828
sI9
g355
sI74
g1304
sI108
(dp1596
sI79
g1383
sI145
(dp1597
sI20
g528
sI21
g536
sI84
g1425
sI58
g1089
sI123
(dp1598
sI29
g677
ssI103
(dp1599
I3
g259
sI9
g356
sI11
g388
sI15
g436
sI147
(dp1600
sI149
(dp1601
sI22
g570
sI25
g613
sI29
g678
sI36
g773
sI44
g898
sI49
g964
sI52
g1015
sI55
g1052
sI58
g1090
sI59
g1103
sI61
g1140
sI73
g1297
sI77
g1338
sI79
g1384
sI86
g1449
sI109
(dp1602
sI122
(dp1603
ssI104
(dp1604
I128
(dp1605
sI113
(dp1606
sI146
(dp1607
sI137
(dp1608
ssI105
(dp1609
I65
g1195
sI2
g244
sI40
g830
sI42
g863
sI12
g408
sI47
g938
sI178
(dp1610
sI179
(dp1611
sI20
g529
sI21
g546
sI182
(dp1612
sI186
(dp1613
sI79
g1385
sI60
g1126
sI58
g1091
ssI106
(dp1614
I2
g245
sI3
g262
sI134
(dp1615
sI21
g539
sI26
g639
sI29
g679
sI158
(dp1616
sI31
g691
sI33
g735
sI34
g752
sI6
g302
sI166
(dp1617
sI39
g815
sI65
g1196
sI70
g1257
sI75
g1318
sI90
g1480
sI93
g1510
sI97
g1559
sI99
g1574
sI100
g1586
sI126
(dp1618
ssI107
(dp1619
I66
g1208
sI131
(dp1620
sI165
(dp1621
sI39
g816
sI8
g336
sI10
g378
sI71
g1263
sI141
(dp1622
sI78
g1363
sI77
g1339
sI85
g1439
sI54
g1039
sI56
g1063
sI57
g1080
sI26
g640
sI124
(dp1623
ssI108
(dp1624
I66
g1209
sI102
g1596
sI41
g853
sI140
(dp1625
sI78
g1364
sI44
g900
sI145
(dp1626
sI181
(dp1627
sI47
g939
sI31
g695
ssI109
(dp1628
I65
g1197
sI83
g1415
sI43
g885
sI147
(dp1629
sI7
g321
sI41
g854
sI103
g1602
sI49
g965
sI19
g502
sI20
g530
sI149
(dp1630
sI122
(dp1631
sI95
g1534
sI60
g1129
sI29
g680
sI63
g1168
ssI110
(dp1632
I194
(dp1633
sI3
g270
sI100
g1587
sI197
(dp1634
sI198
(dp1635
sI7
g322
sI200
(dp1636
sI41
g855
sI76
g1330
sI73
g1298
sI24
g601
sI58
g1094
sI5
g283
ssI111
(dp1637
I1
g234
sI70
g1258
sI71
g1265
sI8
g343
sI41
g856
sI171
(dp1638
sI44
g902
sI173
(dp1639
sI49
g966
sI18
g491
sI116
(dp1640
sI184
(dp1641
sI59
g1109
sI61
g1142
sI62
g1155
ssI112
(dp1642
I65
g1198
sI34
g755
sI3
g266
sI8
g344
sI171
(dp1643
sI173
(dp1644
sI43
g886
sI20
g531
sI22
g571
sI55
g1054
sI184
(dp1645
sI84
g1428
sI154
(dp1646
sI60
g1130
ssI113
(dp1647
I104
g1606
sI137
(dp1648
sI130
(dp1649
sI146
(dp1650
ssI114
(dp1651
I65
g1199
sI83
g1413
sI3
g268
sI70
g1259
sI6
g306
sI167
(dp1652
sI41
g857
sI7
g325
sI174
(dp1653
sI18
g492
sI195
(dp1654
sI21
g542
sI57
g1081
sI153
(dp1655
sI29
g681
ssI115
(dp1656
I32
g722
sI96
g1544
sI3
g256
sI36
g777
sI166
(dp1657
sI134
(dp1658
sI39
g821
sI8
g346
sI43
g888
sI78
g1365
sI79
g1386
sI16
g458
sI18
g493
sI158
(dp1659
sI54
g1041
sI100
g1588
sI90
g1482
sI27
g653
sI126
(dp1660
ssI116
(dp1661
I98
g1569
sI9
g363
sI42
g871
sI171
(dp1662
sI12
g410
sI61
g1144
sI111
g1640
sI76
g1332
sI29
g682
sI19
g506
sI20
g532
sI184
(dp1663
sI154
(dp1664
sI47
g940
sI26
g641
sI94
g1525
ssI117
(dp1665
I59
g1110
sI36
g784
sI40
g835
sI79
g1387
sI49
g967
sI147
(dp1666
sI180
(dp1667
sI187
(dp1668
sI189
(dp1669
ssI118
(dp1670
I129
(dp1671
sI66
g1215
sI67
g1226
sI93
g1513
sI101
g1593
sI38
g808
sI65
g1200
sI40
g836
sI78
g1366
sI14
g428
sI15
g443
sI144
(dp1672
sI49
g968
sI82
g1408
sI142
(dp1673
sI26
g642
sI92
g1504
sI58
g1099
sI62
g1156
ssI119
(dp1674
I1
g235
sI162
(dp1675
sI195
(dp1676
sI97
g1555
sI5
g290
sI167
(dp1677
sI8
g347
sI9
g366
sI79
g1388
sI93
g1514
sI47
g941
sI73
g1299
sI58
g1092
sI59
g1107
sI125
(dp1678
ssI120
(dp1679
I3
g272
sI133
(dp1680
sI7
g329
sI9
g367
sI141
(dp1681
sI20
g533
sI21
g547
sI22
g572
sI24
g604
sI5
g291
sI36
g782
sI165
(dp1682
sI41
g858
sI44
g905
sI50
g986
sI53
g1026
sI31
g696
sI61
g1145
sI69
g1241
sI74
g1308
sI78
g1367
sI79
g1389
sI84
g1432
sI90
g1486
sI124
(dp1683
ssI121
(dp1684
I2
g252
sI11
g394
sI49
g969
sI8
g348
sI171
(dp1685
sI173
(dp1686
sI43
g889
sI18
g494
sI184
(dp1687
sI72
g1280
sI154
(dp1688
sI88
g1465
ssI122
(dp1689
I32
g723
sI33
g741
sI2
g253
sI3
g273
sI66
g1207
sI38
g806
sI103
g1603
sI9
g368
sI42
g873
sI109
g1631
sI78
g1368
sI53
g1027
sI147
(dp1690
sI149
(dp1691
sI22
g573
sI88
g1466
sI29
g683
sI62
g1159
sI51
g999
ssI123
(dp1692
I32
g724
sI132
(dp1693
sI102
g1598
sI39
g824
sI73
g1300
sI10
g375
sI71
g1269
sI140
(dp1694
sI78
g1369
sI145
(dp1695
sI22
g574
sI56
g1068
sI25
g622
sI26
g643
sI42
g874
sI31
g698
ssI124
(dp1696
I96
g1541
sI66
g1216
sI3
g275
sI36
g774
sI133
(dp1697
sI7
g327
sI8
g349
sI76
g1328
sI42
g869
sI107
g1623
sI12
g403
sI49
g970
sI18
g495
sI120
g1683
sI27
g657
sI29
g684
sI165
(dp1698
ssI125
(dp1699
I32
g725
sI1
g236
sI98
g1568
sI195
(dp1700
sI167
(dp1701
sI73
g1301
sI10
g381
sI174
(dp1702
sI79
g1390
sI119
g1678
sI26
g644
sI60
g1133
sI94
g1523
sI31
g700
ssI126
(dp1703
I96
g1547
sI1
g237
sI34
g762
sI166
(dp1704
sI33
g742
sI106
g1618
sI71
g1271
sI45
g920
sI15
g447
sI115
g1660
sI85
g1445
sI23
g592
sI88
g1469
sI74
g1305
sI158
(dp1705
ssI127
(dp1706
I70
g1260
sI198
(dp1707
sI199
(dp1708
sI200
(dp1709
sI9
g371
sI39
g825
sI52
g1017
sI53
g1022
sI25
g621
sI190
(dp1710
ssI128
(dp1711
I104
g1605
sI137
(dp1712
sI130
(dp1713
sI146
(dp1714
ssI129
(dp1715
I3
g255
sI8
g335
sI10
g377
sI142
(dp1716
sI16
g450
sI41
g841
sI42
g861
sI43
g878
sI45
g910
sI53
g1019
sI55
g1051
sI56
g1062
sI57
g1079
sI66
g1202
sI70
g1244
sI74
g1303
sI75
g1313
sI78
g1351
sI79
g1371
sI144
(dp1717
sI100
g1578
sI101
g1590
sI118
g1671
ssI130
(dp1718
I128
g1713
sI113
g1649
sI146
(dp1719
sI137
(dp1720
ssI131
(dp1721
I65
g1183
sI67
g1219
sI43
g879
sI36
g778
sI165
(dp1722
sI73
g1286
sI107
g1620
sI141
(dp1723
sI47
g926
sI99
g1571
sI18
g469
sI51
g989
sI86
g1448
sI25
g610
sI92
g1502
sI94
g1524
ssI132
(dp1724
I1
g215
sI91
g1490
sI102
g1595
sI6
g299
sI7
g316
sI73
g1287
sI140
(dp1725
sI145
(dp1726
sI50
g974
sI19
g499
sI20
g512
sI56
g1064
sI33
g730
sI123
g1693
sI94
g1521
ssI133
(dp1727
I1
g216
sI43
g880
sI97
g1553
sI165
(dp1728
sI6
g300
sI7
g317
sI41
g842
sI11
g385
sI141
(dp1729
sI14
g420
sI60
g1121
sI16
g452
sI92
g1498
sI20
g513
sI53
g1020
sI73
g1288
sI55
g1050
sI120
g1680
sI26
g625
sI124
g1697
ssI134
(dp1730
I1
g217
sI6
g301
sI14
g421
sI16
g453
sI158
(dp1731
sI166
(dp1732
sI40
g827
sI44
g896
sI47
g923
sI183
(dp1733
sI56
g1066
sI58
g1100
sI63
g1164
sI65
g1184
sI67
g1221
sI73
g1289
sI77
g1337
sI84
g1426
sI94
g1520
sI38
g793
sI106
g1615
sI115
g1658
ssI135
(dp1734
I164
(dp1735
sI168
(dp1736
sI73
g1290
sI42
g875
sI11
g395
sI44
g899
sI79
g1372
sI16
g462
sI50
g976
sI181
(dp1737
sI23
g578
sI90
g1478
sI187
(dp1738
sI189
(dp1739
sI21
g540
ssI136
(dp1740
I84
g1427
sI1
g218
sI162
(dp1741
sI195
(dp1742
sI97
g1554
sI90
g1479
sI167
(dp1743
sI98
g1565
sI174
(dp1744
sI88
g1462
sI99
g1573
sI52
g1008
sI24
g599
sI153
(dp1745
sI26
g626
sI29
g663
sI62
g1152
ssI137
(dp1746
I104
g1608
sI113
g1648
sI128
g1712
sI130
g1720
sI146
(dp1747
ssI138
(dp1748
I32
g703
sI96
g1542
sI34
g761
sI59
g1106
sI36
g785
sI38
g794
sI6
g307
sI54
g1038
sI9
g357
sI45
g912
sI47
g924
sI177
(dp1749
sI179
(dp1750
sI182
(dp1751
sI183
(dp1752
sI186
(dp1753
sI27
g650
ssI139
(dp1754
I152
(dp1755
sI169
(dp1756
sI176
(dp1757
sI196
(dp1758
sI185
(dp1759
ssI140
(dp1760
I193
(dp1761
sI3
g263
sI132
g1725
sI54
g1040
sI49
g949
sI47
g925
sI75
g1317
sI108
g1625
sI77
g1340
sI78
g1352
sI15
g438
sI16
g455
sI145
(dp1762
sI18
g470
sI51
g992
sI22
g552
sI24
g600
sI25
g616
sI26
g627
sI123
g1694
sI31
g692
ssI141
(dp1763
I32
g704
sI1
g219
sI66
g1211
sI131
g1723
sI133
g1729
sI73
g1291
sI107
g1622
sI77
g1341
sI78
g1353
sI11
g389
sI98
g1567
sI19
g503
sI120
g1681
sI67
g1223
sI58
g1095
sI165
(dp1764
ssI142
(dp1765
I32
g705
sI129
g1716
sI2
g248
sI101
g1591
sI70
g1245
sI200
(dp1766
sI10
g379
sI44
g901
sI82
g1406
sI79
g1373
sI144
(dp1767
sI49
g950
sI18
g471
sI118
g1673
sI23
g584
sI24
g603
sI26
g628
sI27
g652
sI29
g664
sI94
g1522
sI31
g693
ssI143
(dp1768
I192
(dp1769
sI193
(dp1770
sI6
g309
sI32
g706
sI188
(dp1771
sI63
g1167
sI50
g981
sI86
g1454
sI24
g602
sI31
g694
sI156
(dp1772
sI191
(dp1773
ssI144
(dp1774
I129
g1717
sI2
g249
sI7
g323
sI9
g361
sI142
g1767
sI16
g456
sI18
g472
sI22
g553
sI26
g629
sI33
g737
sI34
g760
sI39
g819
sI170
(dp1775
sI44
g903
sI45
g916
sI49
g951
sI53
g1023
sI61
g1143
sI71
g1262
sI84
g1423
sI14
g426
sI92
g1501
sI101
g1592
sI118
g1672
ssI145
(dp1776
I132
g1726
sI69
g1238
sI102
g1597
sI7
g324
sI8
g339
sI108
g1626
sI71
g1266
sI140
g1762
sI47
g937
sI15
g441
sI49
g952
sI18
g473
sI20
g514
sI41
g844
sI22
g554
sI23
g585
sI72
g1275
sI88
g1460
sI123
g1695
sI86
g1451
ssI146
(dp1777
I104
g1607
sI113
g1650
sI128
g1714
sI130
g1719
sI137
g1747
ssI147
(dp1778
I1
g221
sI3
g269
sI7
g326
sI149
(dp1779
sI23
g586
sI29
g665
sI32
g707
sI40
g834
sI50
g982
sI51
g990
sI52
g1012
sI65
g1185
sI66
g1213
sI74
g1307
sI78
g1354
sI79
g1374
sI84
g1431
sI88
g1463
sI93
g1512
sI97
g1549
sI103
g1600
sI109
g1629
sI117
g1666
sI122
g1690
sI21
g543
ssI148
(dp1780
I97
g1558
sI2
g250
sI168
(dp1781
sI50
g983
sI180
(dp1782
sI181
(dp1783
sI22
g555
sI52
g1013
sI58
g1096
sI187
(dp1784
sI92
g1505
sI189
(dp1785
ssI149
(dp1786
I14
g418
sI147
g1779
sI20
g515
sI23
g593
sI24
g607
sI158
(dp1787
sI32
g708
sI33
g739
sI41
g845
sI42
g872
sI51
g997
sI54
g1044
sI56
g1069
sI57
g1082
sI63
g1175
sI67
g1225
sI71
g1272
sI82
g1410
sI91
g1494
sI97
g1561
sI103
g1601
sI109
g1630
sI122
g1691
ssI150
(dp1788
I176
(dp1789
sI185
(dp1790
sI170
(dp1791
sI196
(dp1792
sI175
(dp1793
ssI151
(dp1794
I83
g1420
sI70
g1246
sI38
g804
sI41
g846
sI11
g393
sI173
(dp1795
sI45
g919
sI178
(dp1796
sI58
g1098
sI182
(dp1797
sI183
(dp1798
sI23
g588
sI186
(dp1799
sI79
g1375
sI26
g630
ssI152
(dp1800
I196
(dp1801
sI169
(dp1802
sI170
(dp1803
sI139
g1755
sI175
(dp1804
sI185
(dp1805
ssI153
(dp1806
I33
g740
sI162
(dp1807
sI163
(dp1808
sI38
g805
sI71
g1268
sI136
g1745
sI43
g891
sI12
g409
sI34
g757
sI174
(dp1809
sI40
g837
sI114
g1655
sI195
(dp1810
sI23
g590
sI59
g1113
sI29
g666
sI62
g1158
ssI154
(dp1811
I5
g292
sI40
g838
sI171
(dp1812
sI173
(dp1813
sI47
g927
sI112
g1646
sI116
g1664
sI54
g1043
sI55
g1058
sI184
(dp1814
sI121
g1688
sI92
g1506
sI29
g667
sI69
g1242
ssI155
(dp1815
I194
(dp1816
sI3
g274
sI197
(dp1817
sI198
(dp1818
sI199
(dp1819
sI200
(dp1820
sI10
g380
sI51
g1000
sI21
g549
sI23
g591
sI90
g1484
sI190
(dp1821
ssI156
(dp1822
I192
(dp1823
sI193
(dp1824
sI66
g1212
sI59
g1105
sI31
g699
sI43
g883
sI172
(dp1825
sI14
g429
sI143
g1772
sI51
g1001
sI85
g1440
sI22
g556
sI15
g445
sI188
(dp1826
sI29
g668
sI94
g1527
sI191
(dp1827
ssI157
(dp1828
I1
g222
sI194
(dp1829
sI197
(dp1830
sI198
(dp1831
sI199
(dp1832
sI200
(dp1833
sI42
g868
sI7
g332
sI77
g1348
sI47
g928
sI82
g1405
sI85
g1441
sI57
g1084
sI6
g305
sI91
g1493
sI26
g631
sI190
(dp1834
sI5
g294
ssI158
(dp1835
I32
g709
sI42
g876
sI99
g1576
sI36
g776
sI134
g1731
sI166
(dp1836
sI72
g1284
sI9
g370
sI106
g1616
sI94
g1528
sI70
g1247
sI14
g431
sI82
g1409
sI115
g1659
sI149
g1787
sI86
g1455
sI59
g1117
sI51
g1002
sI29
g669
sI126
g1705
sI31
g701
ssI159
(dp1837
I192
(dp1838
sI193
(dp1839
sI66
g1217
sI163
(dp1840
sI32
g710
sI33
g743
sI65
g1191
sI1
g223
sI75
g1324
sI172
(dp1841
sI93
g1511
sI19
g508
sI84
g1430
sI83
g1421
sI36
g783
sI59
g1108
sI188
(dp1842
sI29
g670
sI191
(dp1843
ssI160
(dp1844
I196
(dp1845
sI169
(dp1846
sI170
(dp1847
sI175
(dp1848
sI176
(dp1849
sI185
(dp1850
ssI161
(dp1851
I194
(dp1852
sI82
g1403
sI197
(dp1853
sI198
(dp1854
sI199
(dp1855
sI200
(dp1856
sI34
g751
sI45
g911
sI49
g953
sI18
g475
sI20
g526
sI54
g1032
sI29
g671
sI190
(dp1857
sI5
g282
ssI162
(dp1858
I32
g711
sI1
g224
sI66
g1204
sI195
(dp1859
sI167
(dp1860
sI136
g1741
sI9
g353
sI7
g314
sI12
g399
sI174
(dp1861
sI41
g847
sI73
g1292
sI119
g1675
sI153
g1807
sI27
g651
ssI163
(dp1862
I192
(dp1863
sI193
(dp1864
sI2
g240
sI97
g1557
sI65
g1186
sI60
g1122
sI75
g1314
sI34
g748
sI79
g1376
sI20
g518
sI23
g577
sI153
g1808
sI90
g1476
sI159
g1840
sI188
(dp1865
sI191
(dp1866
ssI164
(dp1867
I32
g712
sI65
g1187
sI75
g1315
sI70
g1249
sI135
g1735
sI168
(dp1868
sI96
g1540
sI7
g315
sI78
g1355
sI29
g672
sI49
g954
sI82
g1402
sI180
(dp1869
sI181
(dp1870
sI55
g1056
sI187
(dp1871
sI189
(dp1872
ssI165
(dp1873
I2
g241
sI131
g1722
sI100
g1579
sI133
g1728
sI60
g1134
sI107
g1621
sI141
g1764
sI79
g1377
sI11
g396
sI34
g749
sI18
g476
sI3
g257
sI85
g1446
sI54
g1034
sI120
g1682
sI91
g1491
sI124
g1698
ssI166
(dp1874
I134
g1732
sI7
g331
sI9
g354
sI15
g435
sI18
g477
sI19
g500
sI158
g1836
sI39
g812
sI45
g909
sI47
g929
sI177
(dp1875
sI54
g1035
sI60
g1132
sI62
g1151
sI65
g1188
sI66
g1203
sI90
g1477
sI91
g1492
sI92
g1499
sI106
g1617
sI115
g1657
sI126
g1704
ssI167
(dp1876
I1
g225
sI34
g750
sI7
g319
sI136
g1743
sI20
g519
sI22
g557
sI162
g1860
sI40
g829
sI41
g848
sI45
g913
sI174
(dp1877
sI47
g930
sI63
g1165
sI195
(dp1878
sI75
g1316
sI77
g1347
sI83
g1414
sI84
g1435
sI85
g1444
sI95
g1532
sI114
g1652
sI119
g1677
sI125
g1701
ssI168
(dp1879
I84
g1429
sI1
g226
sI27
g649
sI164
g1868
sI33
g733
sI135
g1736
sI82
g1404
sI45
g918
sI61
g1141
sI50
g977
sI19
g501
sI180
(dp1880
sI181
(dp1881
sI148
g1781
sI187
(dp1882
sI60
g1125
sI189
(dp1883
ssI169
(dp1884
I160
g1846
sI196
(dp1885
sI170
(dp1886
sI139
g1756
sI175
(dp1887
sI152
g1802
sI185
(dp1888
ssI170
(dp1889
I160
g1847
sI176
(dp1890
sI196
(dp1891
sI169
g1886
sI144
g1775
sI150
g1791
sI152
g1803
ssI171
(dp1892
I2
g246
sI8
g340
sI15
g437
sI16
g451
sI25
g615
sI154
g1812
sI34
g753
sI38
g795
sI40
g831
sI173
(dp1893
sI184
(dp1894
sI62
g1154
sI75
g1319
sI86
g1450
sI88
g1464
sI90
g1481
sI92
g1503
sI98
g1566
sI111
g1638
sI112
g1643
sI116
g1662
sI121
g1685
ssI172
(dp1895
I192
(dp1896
sI193
(dp1897
sI100
g1580
sI39
g814
sI188
(dp1898
sI12
g402
sI191
(dp1899
sI78
g1356
sI47
g931
sI76
g1329
sI49
g955
sI50
g978
sI20
g522
sI22
g558
sI58
g1093
sI187
(dp1900
sI156
g1825
sI159
g1841
ssI173
(dp1901
I96
g1543
sI1
g229
sI43
g884
sI6
g304
sI40
g833
sI41
g849
sI42
g866
sI171
g1893
sI111
g1639
sI112
g1644
sI18
g480
sI83
g1416
sI25
g617
sI21
g541
sI151
g1795
sI184
(dp1902
sI121
g1686
sI154
g1813
sI95
g1533
sI63
g1169
ssI174
(dp1903
I3
g264
sI136
g1744
sI14
g424
sI15
g440
sI18
g481
sI20
g523
sI23
g587
sI25
g618
sI162
g1861
sI167
g1877
sI42
g867
sI8
g342
sI55
g1053
sI65
g1189
sI195
(dp1904
sI70
g1250
sI76
g1331
sI97
g1556
sI100
g1581
sI39
g818
sI114
g1653
sI153
g1809
sI125
g1702
ssI175
(dp1905
I160
g1848
sI196
(dp1906
sI169
g1887
sI176
(dp1907
sI150
g1793
sI152
g1804
sI185
(dp1908
ssI176
(dp1909
I160
g1849
sI196
(dp1910
sI170
g1890
sI139
g1757
sI175
g1907
sI150
g1789
sI185
(dp1911
ssI177
(dp1912
I1
g231
sI99
g1575
sI166
g1875
sI72
g1276
sI73
g1293
sI138
g1749
sI75
g1321
sI18
g482
sI178
(dp1913
sI179
(dp1914
sI84
g1424
sI182
(dp1915
sI183
(dp1916
sI186
(dp1917
sI26
g632
sI63
g1170
ssI178
(dp1918
I19
g504
sI11
g391
sI22
g561
sI39
g820
sI105
g1610
sI74
g1306
sI151
g1796
sI15
g442
sI16
g457
sI177
g1913
sI179
(dp1919
sI52
g1011
sI21
g535
sI182
(dp1920
sI183
(dp1921
sI186
(dp1922
sI53
g1024
ssI179
(dp1923
I5
g286
sI105
g1611
sI138
g1750
sI12
g404
sI93
g1509
sI47
g933
sI177
g1914
sI178
g1919
sI182
(dp1924
sI183
(dp1925
sI186
(dp1926
sI42
g870
sI69
g1239
ssI180
(dp1927
I32
g715
sI67
g1224
sI164
g1869
sI38
g801
sI168
g1880
sI53
g1025
sI44
g904
sI21
g548
sI16
g461
sI92
g1500
sI18
g483
sI83
g1417
sI148
g1782
sI117
g1667
sI86
g1452
sI36
g779
sI187
(dp1928
sI188
(dp1929
sI189
(dp1930
sI181
(dp1931
ssI181
(dp1932
I66
g1214
sI164
g1870
sI38
g802
sI135
g1737
sI168
g1881
sI9
g364
sI74
g1309
sI108
g1627
sI45
g917
sI12
g406
sI47
g934
sI49
g956
sI83
g1418
sI148
g1783
sI25
g619
sI180
g1931
sI187
(dp1933
sI189
(dp1934
ssI182
(dp1935
I50
g985
sI6
g311
sI49
g957
sI72
g1278
sI105
g1612
sI138
g1751
sI183
(dp1936
sI18
g484
sI14
g423
sI177
g1915
sI178
g1920
sI179
g1924
sI22
g562
sI151
g1797
sI186
(dp1937
sI27
g654
sI58
g1097
ssI183
(dp1938
I32
g716
sI36
g781
sI134
g1733
sI138
g1752
sI23
g582
sI76
g1334
sI177
g1916
sI178
g1921
sI179
g1925
sI182
g1936
sI151
g1798
sI186
(dp1939
sI59
g1111
sI29
g675
ssI184
(dp1940
I192
(dp1941
sI65
g1190
sI70
g1251
sI97
g1560
sI9
g369
sI171
g1894
sI173
g1902
sI78
g1357
sI111
g1641
sI112
g1645
sI49
g958
sI18
g485
sI116
g1663
sI73
g1294
sI25
g620
sI121
g1687
sI154
g1814
sI26
g633
sI62
g1157
ssI185
(dp1942
I160
g1850
sI196
(dp1943
sI169
g1888
sI139
g1759
sI175
g1908
sI176
g1911
sI150
g1790
sI152
g1805
ssI186
(dp1944
I32
g717
sI58
g1088
sI67
g1227
sI5
g287
sI49
g961
sI105
g1613
sI138
g1753
sI183
g1939
sI61
g1147
sI177
g1917
sI178
g1922
sI179
g1926
sI20
g524
sI85
g1443
sI182
g1937
sI151
g1799
sI22
g563
sI26
g634
sI189
(dp1945
sI31
g697
ssI187
(dp1946
I84
g1433
sI96
g1545
sI59
g1102
sI164
g1871
sI70
g1252
sI38
g807
sI135
g1738
sI168
g1882
sI44
g906
sI7
g330
sI172
g1900
sI18
g486
sI148
g1784
sI117
g1668
sI23
g581
sI180
g1928
sI90
g1485
sI27
g656
sI189
(dp1947
sI94
g1526
sI181
g1933
ssI188
(dp1948
I192
(dp1949
sI193
(dp1950
sI34
g754
sI163
g1865
sI5
g293
sI65
g1192
sI12
g411
sI172
g1898
sI143
g1771
sI180
g1929
sI21
g550
sI191
(dp1951
sI156
g1826
sI159
g1842
ssI189
(dp1952
I96
g1546
sI65
g1193
sI164
g1872
sI38
g798
sI135
g1739
sI168
g1883
sI71
g1270
sI14
g430
sI47
g935
sI8
g350
sI180
g1930
sI117
g1669
sI22
g564
sI88
g1461
sI24
g605
sI148
g1785
sI186
g1945
sI187
g1947
sI85
g1442
sI181
g1934
ssI190
(dp1953
I161
g1857
sI194
(dp1954
sI1
g232
sI197
(dp1955
sI198
(dp1956
sI199
(dp1957
sI200
(dp1958
sI9
g358
sI75
g1323
sI45
g915
sI14
g425
sI18
g487
sI51
g994
sI55
g1055
sI24
g606
sI33
g736
sI155
g1821
sI157
g1834
sI127
g1710
ssI191
(dp1959
I192
(dp1960
sI193
(dp1961
sI34
g759
sI163
g1866
sI197
(dp1962
sI70
g1253
sI8
g351
sI156
g1827
sI23
g589
sI172
g1899
sI77
g1349
sI12
g412
sI143
g1773
sI50
g987
sI52
g1010
sI41
g850
sI9
g359
sI55
g1060
sI15
g448
sI188
g1951
sI159
g1843
ssI192
(dp1963
I32
g718
sI193
(dp1964
sI34
g745
sI163
g1863
sI38
g791
sI6
g296
sI96
g1537
sI188
g1949
sI11
g384
sI172
g1896
sI45
g908
sI12
g398
sI143
g1769
sI24
g595
sI52
g1005
sI41
g851
sI184
g1941
sI26
g635
sI191
g1960
sI156
g1823
sI159
g1838
ssI193
(dp1965
I192
g1964
sI19
g497
sI34
g746
sI163
g1864
sI100
g1582
sI8
g337
sI140
g1761
sI172
g1897
sI63
g1162
sI143
g1770
sI82
g1400
sI188
g1950
sI22
g565
sI41
g843
sI191
g1961
sI156
g1824
sI159
g1839
ssI194
(dp1966
I32
g719
sI161
g1852
sI66
g1206
sI36
g771
sI197
(dp1967
sI198
(dp1968
sI199
(dp1969
sI200
(dp1970
sI96
g1539
sI45
g914
sI110
g1633
sI22
g566
sI23
g580
sI33
g728
sI155
g1816
sI157
g1829
sI190
g1954
ssI195
(dp1971
I32
g720
sI33
g729
sI162
g1859
sI54
g1033
sI6
g298
sI167
g1878
sI136
g1742
sI199
(dp1972
sI50
g973
sI174
g1904
sI114
g1654
sI19
g505
sI22
g567
sI119
g1676
sI83
g1412
sI153
g1810
sI90
g1483
sI125
g1700
sI95
g1531
ssI196
(dp1973
I160
g1845
sI169
g1885
sI170
g1891
sI139
g1758
sI175
g1906
sI176
g1910
sI150
g1792
sI152
g1801
sI185
g1943
ssI197
(dp1974
I161
g1853
sI194
g1967
sI70
g1248
sI198
(dp1975
sI199
(dp1976
sI200
(dp1977
sI110
g1634
sI79
g1378
sI49
g960
sI18
g488
sI155
g1817
sI157
g1830
sI190
g1955
sI191
g1962
ssI198
(dp1978
I7
g318
sI18
g489
sI22
g568
sI24
g597
sI25
g612
sI26
g637
sI155
g1818
sI157
g1831
sI161
g1854
sI34
g763
sI43
g881
sI72
g1274
sI190
g1956
sI65
g1194
sI194
g1968
sI197
g1975
sI199
(dp1979
sI200
(dp1980
sI76
g1327
sI79
g1379
sI96
g1538
sI100
g1583
sI110
g1635
sI127
g1707
ssI199
(dp1981
I161
g1855
sI194
g1969
sI195
g1972
sI197
g1976
sI198
g1979
sI33
g732
sI200
(dp1982
sI47
g936
sI42
g864
sI39
g813
sI76
g1335
sI29
g676
sI18
g490
sI20
g521
sI52
g1016
sI155
g1819
sI157
g1832
sI190
g1957
sI127
g1708
ssI200
(dp1983
I161
g1856
sI194
g1970
sI3
g260
sI100
g1584
sI197
g1977
sI198
g1980
sI199
g1982
sI63
g1166
sI42
g862
sI43
g882
sI66
g1205
sI142
g1766
sI110
g1636
sI73
g1295
sI33
g738
sI155
g1820
sI157
g1833
sI190
g1958
sI127
g1709
sssS'graph'
p1984
(dp1985
sS'adjlist_dict_factory'
p1986
g210
sS'adj'
p1987
g213
sba(dp1988
I1
c__builtin__
set
p1989
((lp1990
I1
aI2
aI3
aI4
aI5
aI6
aI7
aI8
aI9
aI10
aI11
aI12
aI13
aI14
aI15
aI16
aI17
aI18
aI19
aI20
aI21
aI22
aI23
aI24
aI25
aI26
aI27
aI28
aI29
aI30
aI31
aI32
aI33
aI34
aI35
aI36
aI37
aI38
aI39
aI40
aI41
aI42
aI43
aI44
aI45
aI46
aI47
aI48
aI49
aI50
aI51
aI52
aI53
aI54
aI55
aI56
aI57
aI58
aI59
aI60
aI61
aI62
aI63
aI64
aI65
aI66
aI67
aI68
aI69
aI70
aI71
aI72
aI73
aI74
aI75
aI76
aI77
aI78
aI79
aI80
aI81
aI82
aI83
aI84
aI85
aI86
aI87
aI88
aI89
aI90
aI91
aI92
aI93
aI94
aI95
aI96
aI97
aI98
aI99
aI100
atp1991
Rp1992
sI2
g1989
((lp1993
I101
aI102
aI103
aI104
aI105
aI106
aI107
aI108
aI109
aI110
aI111
aI112
aI113
aI114
aI115
aI116
aI117
aI118
aI119
aI120
aI121
aI122
aI123
aI124
aI125
aI126
aI127
aI128
aI129
aI130
aI131
aI132
aI133
aI134
aI135
aI136
aI137
aI138
aI139
aI140
aI141
aI142
aI143
aI144
aI145
aI146
aI147
aI148
aI149
aI150
aI151
aI152
aI153
aI154
aI155
aI156
aI157
aI158
aI159
aI160
aI161
aI162
aI163
aI164
aI165
aI166
aI167
aI168
aI169
aI170
aI171
aI172
aI173
aI174
aI175
aI176
aI177
aI178
aI179
aI180
aI181
aI182
aI183
aI184
aI185
aI186
aI187
aI188
aI189
aI190
aI191
aI192
aI193
aI194
aI195
aI196
aI197
aI198
aI199
aI200
atp1994
Rp1995
sa(dp1996
I1
g1989
((lp1997
I18
aI42
aI44
aI29
atp1998
Rp1999
sI2
g1989
((lp2000
I8
aI32
aI45
aI23
atp2001
Rp2002
sI3
g1989
((lp2003
I9
aI49
aI22
aI47
atp2004
Rp2005
sI4
g1989
((lp2006
I28
aI13
aI46
aI37
atp2007
Rp2008
sI5
g1989
((lp2009
I82
aI86
aI78
aI79
atp2010
Rp2011
sI6
g1989
((lp2012
I26
aI58
aI66
aI34
atp2013
Rp2014
sI7
g1989
((lp2015
I24
aI41
aI65
aI31
atp2016
Rp2017
sI8
g1989
((lp2018
I40
aI81
aI2
aI45
atp2019
Rp2020
sI9
g1989
((lp2021
I49
aI3
aI22
aI47
atp2022
Rp2023
sI10
g1989
((lp2024
I97
aI98
aI100
aI94
atp2025
Rp2026
sI11
g1989
((lp2027
I16
aI73
aI84
aI71
atp2028
Rp2029
sI12
g1989
((lp2030
I73
aI84
aI54
aI71
atp2031
Rp2032
sI13
g1989
((lp2033
I46
aI4
aI37
aI30
atp2034
Rp2035
sI14
g1989
((lp2036
I74
aI67
aI53
aI95
atp2037
Rp2038
sI15
g1989
((lp2039
I26
aI58
aI66
aI34
atp2040
Rp2041
sI16
g1989
((lp2042
I11
aI84
aI54
aI71
atp2043
Rp2044
sI17
g1989
((lp2045
I80
aI89
aI87
aI47
atp2046
Rp2047
sI18
g1989
((lp2048
I1
aI42
aI44
aI29
atp2049
Rp2050
sI19
g1989
((lp2051
I25
aI67
aI62
aI95
atp2052
Rp2053
sI20
g1989
((lp2054
I24
aI33
aI65
aI41
atp2055
Rp2056
sI21
g1989
((lp2057
I73
aI84
aI54
aI71
atp2058
Rp2059
sI22
g1989
((lp2060
I9
aI3
aI49
aI47
atp2061
Rp2062
sI23
g1989
((lp2063
I32
aI40
aI2
aI45
atp2064
Rp2065
sI24
g1989
((lp2066
I33
aI20
aI65
aI7
atp2067
Rp2068
sI25
g1989
((lp2069
I67
aI19
aI74
aI95
atp2070
Rp2071
sI26
g1989
((lp2072
I58
aI66
aI6
aI15
atp2073
Rp2074
sI27
g1989
((lp2075
I90
aI99
aI100
aI98
atp2076
Rp2077
sI28
g1989
((lp2078
I46
aI4
aI37
aI30
atp2079
Rp2080
sI29
g1989
((lp2081
I1
aI18
aI44
aI42
atp2082
Rp2083
sI30
g1989
((lp2084
I28
aI13
aI46
aI37
atp2085
Rp2086
sI31
g1989
((lp2087
I41
aI65
aI7
atp2088
Rp2089
sI32
g1989
((lp2090
I40
aI2
aI45
aI23
atp2091
Rp2092
sI33
g1989
((lp2093
I24
aI41
aI20
aI65
atp2094
Rp2095
sI34
g1989
((lp2096
I58
aI83
aI66
aI6
aI15
atp2097
Rp2098
sI35
g1989
((lp2099
I64
aI81
aI68
aI89
aI87
atp2100
Rp2101
sI36
g1989
((lp2102
I74
aI67
aI53
aI62
aI95
atp2103
Rp2104
sI37
g1989
((lp2105
I28
aI46
aI4
aI13
aI30
atp2106
Rp2107
sI38
g1989
((lp2108
I82
aI83
aI77
aI86
aI79
atp2109
Rp2110
sI39
g1989
((lp2111
I96
aI76
aI52
aI69
aI85
atp2112
Rp2113
sI40
g1989
((lp2114
I8
aI32
aI45
aI93
aI23
atp2115
Rp2116
sI41
g1989
((lp2117
I33
aI31
aI20
aI65
aI7
atp2118
Rp2119
sI42
g1989
((lp2120
I1
aI18
aI44
aI29
aI100
atp2121
Rp2122
sI43
g1989
((lp2123
I56
aI88
aI91
aI92
aI93
atp2124
Rp2125
sI44
g1989
((lp2126
I1
aI18
aI42
aI29
aI70
atp2127
Rp2128
sI45
g1989
((lp2129
I8
aI32
aI2
aI40
aI23
atp2130
Rp2131
sI46
g1989
((lp2132
I28
aI4
aI13
aI30
aI37
atp2133
Rp2134
sI47
g1989
((lp2135
I9
aI3
aI49
aI22
aI17
atp2136
Rp2137
sI48
g1989
((lp2138
I80
aI81
aI68
aI89
aI87
atp2139
Rp2140
sI49
g1989
((lp2141
I9
aI58
aI3
aI22
aI47
atp2142
Rp2143
sI50
g1989
((lp2144
I96
aI75
aI76
aI85
aI70
atp2145
Rp2146
sI51
g1989
((lp2147
I73
aI82
aI83
aI86
aI78
atp2148
Rp2149
sI52
g1989
((lp2150
I96
aI69
aI70
aI39
aI75
aI85
atp2151
Rp2152
sI53
g1989
((lp2153
I36
aI74
aI14
aI63
aI62
aI95
atp2154
Rp2155
sI54
g1989
((lp2156
I71
aI73
aI12
aI16
aI84
aI21
atp2157
Rp2158
sI55
g1989
((lp2159
I97
aI98
aI99
aI100
aI90
aI94
atp2160
Rp2161
sI56
g1989
((lp2162
I72
aI43
aI88
aI91
aI92
aI93
atp2163
Rp2164
sI57
g1989
((lp2165
I97
aI98
aI99
aI100
aI90
aI94
atp2166
Rp2167
sI58
g1989
((lp2168
I66
aI6
aI34
aI15
aI49
aI26
atp2169
Rp2170
sI59
g1989
((lp2171
I72
aI88
aI91
aI92
aI93
aI63
atp2172
Rp2173
sI60
g1989
((lp2174
I96
aI69
aI70
aI75
aI76
aI85
atp2175
Rp2176
sI61
g1989
((lp2177
I97
aI98
aI99
aI100
aI90
aI94
atp2178
Rp2179
sI62
g1989
((lp2180
I67
aI36
aI74
aI19
aI53
aI95
atp2181
Rp2182
sI63
g1989
((lp2183
I59
aI53
aI88
aI91
aI92
aI93
atp2184
Rp2185
sI64
g1989
((lp2186
I35
aI68
aI80
aI81
aI87
aI89
atp2187
Rp2188
sI65
g1989
((lp2189
I33
aI7
aI41
aI20
aI24
aI31
atp2190
Rp2191
sI66
g1989
((lp2192
I34
aI6
aI77
aI15
aI26
aI58
atp2193
Rp2194
sI67
g1989
((lp2195
I36
aI74
aI14
aI19
aI25
aI62
aI95
atp2196
Rp2197
sI68
g1989
((lp2198
I64
aI80
aI35
aI48
aI81
aI87
aI89
atp2199
Rp2200
sI69
g1989
((lp2201
I96
aI70
aI39
aI75
aI52
aI85
aI60
atp2202
Rp2203
sI70
g1989
((lp2204
I96
aI69
aI44
aI76
aI50
aI52
aI60
atp2205
Rp2206
sI71
g1989
((lp2207
I73
aI11
aI12
aI16
aI84
aI21
aI54
atp2208
Rp2209
sI72
g1989
((lp2210
I59
aI88
aI87
aI56
aI91
aI92
aI93
atp2211
Rp2212
sI73
g1989
((lp2213
I71
aI11
aI12
aI51
aI84
aI21
aI54
atp2214
Rp2215
sI74
g1989
((lp2216
I67
aI36
aI14
aI53
aI25
aI62
aI95
atp2217
Rp2218
sI75
g1989
((lp2219
I96
aI69
aI76
aI50
aI52
aI85
aI60
atp2220
Rp2221
sI76
g1989
((lp2222
I96
aI70
aI39
aI75
aI50
aI85
aI60
atp2223
Rp2224
sI77
g1989
((lp2225
I66
aI38
aI78
aI79
aI82
aI83
aI86
atp2226
Rp2227
sI78
g1989
((lp2228
I51
aI5
aI77
aI79
aI82
aI83
aI86
atp2229
Rp2230
sI79
g1989
((lp2231
I5
aI38
aI77
aI78
aI82
aI83
aI86
atp2232
Rp2233
sI80
g1989
((lp2234
I64
aI68
aI81
aI48
aI17
aI87
aI88
aI89
atp2235
Rp2236
sI81
g1989
((lp2237
I64
aI80
aI35
aI68
aI8
aI48
aI87
aI89
atp2238
Rp2239
sI82
g1989
((lp2240
I83
aI5
aI38
aI77
aI78
aI79
aI51
aI86
atp2241
Rp2242
sI83
g1989
((lp2243
I34
aI38
aI77
aI78
aI79
aI82
aI51
aI86
atp2244
Rp2245
sI84
g1989
((lp2246
I71
aI73
aI11
aI12
aI16
aI21
aI54
aI92
atp2247
Rp2248
sI85
g1989
((lp2249
I96
aI69
aI39
aI75
aI76
aI50
aI52
aI60
atp2250
Rp2251
sI86
g1989
((lp2252
I83
aI5
aI38
aI77
aI78
aI79
aI82
aI51
aI89
atp2253
Rp2254
sI87
g1989
((lp2255
I64
aI80
aI35
aI68
aI81
aI72
aI48
aI17
aI89
atp2256
Rp2257
sI88
g1989
((lp2258
I91
aI72
aI43
aI80
aI56
aI59
aI92
aI93
aI63
atp2259
Rp2260
sI89
g1989
((lp2261
I64
aI80
aI35
aI68
aI81
aI48
aI17
aI86
aI87
atp2262
Rp2263
sI90
g1989
((lp2264
I97
aI98
aI99
aI100
aI55
aI57
aI27
aI61
aI94
atp2265
Rp2266
sI91
g1989
((lp2267
I97
aI72
aI43
aI88
aI56
aI59
aI92
aI93
aI63
atp2268
Rp2269
sI92
g1989
((lp2270
I91
aI72
aI43
aI88
aI84
aI56
aI59
aI93
aI63
atp2271
Rp2272
sI93
g1989
((lp2273
I91
aI40
aI43
aI72
aI56
aI88
aI59
aI92
aI63
atp2274
Rp2275
sI94
g1989
((lp2276
I97
aI98
aI99
aI100
aI10
aI55
aI57
aI90
aI61
atp2277
Rp2278
sI95
g1989
((lp2279
I67
aI36
aI74
aI14
aI99
aI19
aI53
aI25
aI62
atp2280
Rp2281
sI96
g1989
((lp2282
I69
aI70
aI39
aI75
aI76
aI50
aI52
aI85
aI60
atp2283
Rp2284
sI97
g1989
((lp2285
I98
aI99
aI100
aI10
aI55
aI57
aI90
aI91
aI61
aI94
atp2286
Rp2287
sI98
g1989
((lp2288
I97
aI99
aI100
aI10
aI55
aI57
aI90
aI27
aI61
aI94
atp2289
Rp2290
sI99
g1989
((lp2291
I97
aI98
aI100
aI55
aI57
aI90
aI27
aI61
aI94
aI95
atp2292
Rp2293
sI100
g1989
((lp2294
I97
aI98
aI99
aI10
aI42
aI55
aI57
aI90
aI27
aI61
aI94
atp2295
Rp2296
sI101
g1989
((lp2297
I144
aI129
aI142
aI118
atp2298
Rp2299
sI102
g1989
((lp2300
I132
aI123
aI108
aI145
atp2301
Rp2302
sI103
g1989
((lp2303
I122
aI147
aI109
aI149
atp2304
Rp2305
sI104
g1989
((lp2306
I128
aI113
aI146
aI137
atp2307
Rp2308
sI105
g1989
((lp2309
I178
aI179
aI186
aI182
atp2310
Rp2311
sI106
g1989
((lp2312
I166
aI134
aI126
aI158
atp2313
Rp2314
sI107
g1989
((lp2315
I131
aI124
aI141
aI165
atp2316
Rp2317
sI108
g1989
((lp2318
I145
aI140
aI181
aI102
atp2319
Rp2320
sI109
g1989
((lp2321
I122
aI147
aI149
aI103
atp2322
Rp2323
sI110
g1989
((lp2324
I200
aI194
aI197
aI198
atp2325
Rp2326
sI111
g1989
((lp2327
I184
aI171
aI116
aI173
atp2328
Rp2329
sI112
g1989
((lp2330
I184
aI154
aI171
aI173
atp2331
Rp2332
sI113
g1989
((lp2333
I104
aI137
aI130
aI146
atp2334
Rp2335
sI114
g1989
((lp2336
I153
aI195
aI174
aI167
atp2337
Rp2338
sI115
g1989
((lp2339
I166
aI134
aI126
aI158
atp2340
Rp2341
sI116
g1989
((lp2342
I184
aI154
aI171
aI111
atp2343
Rp2344
sI117
g1989
((lp2345
I147
aI180
aI187
aI189
atp2346
Rp2347
sI118
g1989
((lp2348
I144
aI129
aI101
aI142
atp2349
Rp2350
sI119
g1989
((lp2351
I162
aI195
aI125
aI167
atp2352
Rp2353
sI120
g1989
((lp2354
I165
aI124
aI133
aI141
atp2355
Rp2356
sI121
g1989
((lp2357
I184
aI154
aI171
aI173
atp2358
Rp2359
sI122
g1989
((lp2360
I149
aI147
aI109
aI103
atp2361
Rp2362
sI123
g1989
((lp2363
I140
aI132
aI102
aI145
atp2364
Rp2365
sI124
g1989
((lp2366
I120
aI107
aI133
aI165
atp2367
Rp2368
sI125
g1989
((lp2369
I167
aI195
aI174
aI119
atp2370
Rp2371
sI126
g1989
((lp2372
I106
aI115
aI166
aI158
atp2373
Rp2374
sI127
g1989
((lp2375
I200
aI198
aI190
aI199
atp2376
Rp2377
sI128
g1989
((lp2378
I104
aI137
aI130
aI146
atp2379
Rp2380
sI129
g1989
((lp2381
I144
aI101
aI118
aI142
atp2382
Rp2383
sI130
g1989
((lp2384
I128
aI113
aI146
aI137
atp2385
Rp2386
sI131
g1989
((lp2387
I107
aI141
aI165
atp2388
Rp2389
sI132
g1989
((lp2390
I145
aI123
aI140
aI102
atp2391
Rp2392
sI133
g1989
((lp2393
I120
aI124
aI141
aI165
atp2394
Rp2395
sI134
g1989
((lp2396
I106
aI115
aI166
aI158
aI183
atp2397
Rp2398
sI135
g1989
((lp2399
I168
aI187
aI164
aI181
aI189
atp2400
Rp2401
sI136
g1989
((lp2402
I153
aI162
aI195
aI174
aI167
atp2403
Rp2404
sI137
g1989
((lp2405
I104
aI113
aI128
aI130
aI146
atp2406
Rp2407
sI138
g1989
((lp2408
I177
aI186
aI179
aI182
aI183
atp2409
Rp2410
sI139
g1989
((lp2411
I152
aI169
aI176
aI196
aI185
atp2412
Rp2413
sI140
g1989
((lp2414
I132
aI193
aI123
aI108
aI145
atp2415
Rp2416
sI141
g1989
((lp2417
I120
aI107
aI131
aI133
aI165
atp2418
Rp2419
sI142
g1989
((lp2420
I144
aI129
aI200
aI101
aI118
atp2421
Rp2422
sI143
g1989
((lp2423
I192
aI188
aI193
aI156
aI191
atp2424
Rp2425
sI144
g1989
((lp2426
I129
aI170
aI101
aI118
aI142
atp2427
Rp2428
sI145
g1989
((lp2429
I132
aI140
aI123
aI108
aI102
atp2430
Rp2431
sI146
g1989
((lp2432
I104
aI113
aI128
aI130
aI137
atp2433
Rp2434
sI147
g1989
((lp2435
I149
aI122
aI117
aI109
aI103
atp2436
Rp2437
sI148
g1989
((lp2438
I168
aI187
aI180
aI181
aI189
atp2439
Rp2440
sI149
g1989
((lp2441
I122
aI147
aI109
aI158
aI103
atp2442
Rp2443
sI150
g1989
((lp2444
I176
aI185
aI170
aI196
aI175
atp2445
Rp2446
sI151
g1989
((lp2447
I178
aI186
aI173
aI182
aI183
atp2448
Rp2449
sI152
g1989
((lp2450
I196
aI169
aI170
aI139
aI175
aI185
atp2451
Rp2452
sI153
g1989
((lp2453
I162
aI163
aI136
aI174
aI114
aI195
atp2454
Rp2455
sI154
g1989
((lp2456
I171
aI173
aI112
aI116
aI184
aI121
atp2457
Rp2458
sI155
g1989
((lp2459
I194
aI197
aI198
aI199
aI200
aI190
atp2460
Rp2461
sI156
g1989
((lp2462
I192
aI193
aI172
aI143
aI188
aI191
atp2463
Rp2464
sI157
g1989
((lp2465
I194
aI197
aI198
aI199
aI200
aI190
atp2466
Rp2467
sI158
g1989
((lp2468
I134
aI166
aI106
aI115
aI149
aI126
atp2469
Rp2470
sI159
g1989
((lp2471
I192
aI193
aI163
aI172
aI188
aI191
atp2472
Rp2473
sI160
g1989
((lp2474
I196
aI169
aI170
aI175
aI176
aI185
atp2475
Rp2476
sI161
g1989
((lp2477
I194
aI197
aI198
aI199
aI200
aI190
atp2478
Rp2479
sI162
g1989
((lp2480
I195
aI167
aI136
aI174
aI119
aI153
atp2481
Rp2482
sI163
g1989
((lp2483
I192
aI193
aI153
aI159
aI188
aI191
atp2484
Rp2485
sI164
g1989
((lp2486
I135
aI168
aI180
aI181
aI187
aI189
atp2487
Rp2488
sI165
g1989
((lp2489
I131
aI133
aI107
aI141
aI120
aI124
atp2490
Rp2491
sI166
g1989
((lp2492
I134
aI106
aI177
aI115
aI158
aI126
atp2493
Rp2494
sI167
g1989
((lp2495
I162
aI195
aI136
aI174
aI114
aI119
aI125
atp2496
Rp2497
sI168
g1989
((lp2498
I164
aI135
aI180
aI181
aI148
aI187
aI189
atp2499
Rp2500
sI169
g1989
((lp2501
I160
aI196
aI170
aI139
aI175
aI152
aI185
atp2502
Rp2503
sI170
g1989
((lp2504
I160
aI176
aI196
aI169
aI144
aI150
aI152
atp2505
Rp2506
sI171
g1989
((lp2507
I173
aI111
aI112
aI116
aI184
aI121
aI154
atp2508
Rp2509
sI172
g1989
((lp2510
I192
aI193
aI156
aI159
aI187
aI188
aI191
atp2511
Rp2512
sI173
g1989
((lp2513
I171
aI111
aI112
aI151
aI184
aI121
aI154
atp2514
Rp2515
sI174
g1989
((lp2516
I162
aI195
aI167
aI136
aI114
aI153
aI125
atp2517
Rp2518
sI175
g1989
((lp2519
I160
aI196
aI169
aI176
aI150
aI152
aI185
atp2520
Rp2521
sI176
g1989
((lp2522
I160
aI196
aI170
aI139
aI175
aI150
aI185
atp2523
Rp2524
sI177
g1989
((lp2525
I166
aI138
aI178
aI179
aI182
aI183
aI186
atp2526
Rp2527
sI178
g1989
((lp2528
I105
aI151
aI177
aI179
aI182
aI183
aI186
atp2529
Rp2530
sI179
g1989
((lp2531
I105
aI138
aI177
aI178
aI182
aI183
aI186
atp2532
Rp2533
sI180
g1989
((lp2534
I164
aI168
aI148
aI117
aI187
aI188
aI189
aI181
atp2535
Rp2536
sI181
g1989
((lp2537
I164
aI135
aI168
aI108
aI148
aI180
aI187
aI189
atp2538
Rp2539
sI182
g1989
((lp2540
I105
aI138
aI183
aI177
aI178
aI179
aI151
aI186
atp2541
Rp2542
sI183
g1989
((lp2543
I134
aI138
aI177
aI178
aI179
aI182
aI151
aI186
atp2544
Rp2545
sI184
g1989
((lp2546
I192
aI171
aI173
aI111
aI112
aI116
aI121
aI154
atp2547
Rp2548
sI185
g1989
((lp2549
I160
aI196
aI169
aI139
aI175
aI176
aI150
aI152
atp2550
Rp2551
sI186
g1989
((lp2552
I105
aI138
aI183
aI177
aI178
aI179
aI182
aI151
aI189
atp2553
Rp2554
sI187
g1989
((lp2555
I164
aI135
aI168
aI172
aI148
aI117
aI180
aI189
aI181
atp2556
Rp2557
sI188
g1989
((lp2558
I192
aI193
aI163
aI172
aI143
aI180
aI191
aI156
aI159
atp2559
Rp2560
sI189
g1989
((lp2561
I164
aI135
aI168
aI180
aI117
aI148
aI186
aI187
aI181
atp2562
Rp2563
sI190
g1989
((lp2564
I161
aI194
aI197
aI198
aI199
aI200
aI155
aI157
aI127
atp2565
Rp2566
sI191
g1989
((lp2567
I192
aI193
aI163
aI197
aI156
aI172
aI143
aI188
aI159
atp2568
Rp2569
sI192
g1989
((lp2570
I193
aI163
aI188
aI172
aI143
aI184
aI191
aI156
aI159
atp2571
Rp2572
sI193
g1989
((lp2573
I192
aI163
aI140
aI172
aI143
aI188
aI191
aI156
aI159
atp2574
Rp2575
sI194
g1989
((lp2576
I161
aI197
aI198
aI199
aI200
aI110
aI155
aI157
aI190
atp2577
Rp2578
sI195
g1989
((lp2579
I162
aI167
aI136
aI199
aI174
aI114
aI119
aI153
aI125
atp2580
Rp2581
sI196
g1989
((lp2582
I160
aI169
aI170
aI139
aI175
aI176
aI150
aI152
aI185
atp2583
Rp2584
sI197
g1989
((lp2585
I161
aI194
aI198
aI199
aI200
aI110
aI155
aI157
aI190
aI191
atp2586
Rp2587
sI198
g1989
((lp2588
I161
aI194
aI197
aI199
aI200
aI110
aI155
aI157
aI190
aI127
atp2589
Rp2590
sI199
g1989
((lp2591
I161
aI194
aI195
aI197
aI198
aI200
aI155
aI157
aI190
aI127
atp2592
Rp2593
sI200
g1989
((lp2594
I161
aI194
aI197
aI198
aI199
aI142
aI110
aI155
aI157
aI190
aI127
atp2595
Rp2596
sa(dp2597
I1
g1989
((lp2598
I133
aI162
aI132
aI101
aI134
aI177
aI136
aI167
aI173
aI141
aI157
aI168
aI147
aI190
aI119
aI111
aI125
aI126
aI159
atp2599
Rp2600
sI2
g1989
((lp2601
I163
aI165
aI102
aI105
aI106
aI171
aI142
aI144
aI148
aI121
aI122
atp2602
Rp2603
sI3
g1989
((lp2604
I129
aI147
aI165
aI102
aI103
aI200
aI106
aI140
aI174
aI112
aI114
aI115
aI110
aI120
aI122
aI155
aI124
atp2605
Rp2606
sI5
g1989
((lp2607
I161
aI110
aI157
aI179
aI119
aI120
aI154
aI188
aI186
atp2608
Rp2609
sI6
g1989
((lp2610
I192
aI195
aI132
aI133
aI134
aI106
aI138
aI173
aI143
aI114
aI182
aI157
atp2611
Rp2612
sI7
g1989
((lp2613
I198
aI162
aI132
aI133
aI166
aI167
aI109
aI110
aI144
aI145
aI114
aI147
aI120
aI164
aI187
aI124
aI157
atp2614
Rp2615
sI8
g1989
((lp2616
I129
aI171
aI193
aI107
aI174
aI111
aI112
aI145
aI115
aI119
aI121
aI124
aI189
aI191
atp2617
Rp2618
sI9
g1989
((lp2619
I162
aI102
aI166
aI103
aI138
aI158
aI144
aI120
aI116
aI181
aI119
aI184
aI122
aI127
aI190
aI191
atp2620
Rp2621
sI10
g1989
((lp2622
I129
aI155
aI107
aI142
aI123
aI125
atp2623
Rp2624
sI11
g1989
((lp2625
I192
aI133
aI103
aI135
aI141
aI178
aI151
aI121
aI165
atp2626
Rp2627
sI12
g1989
((lp2628
I192
aI188
aI162
aI105
aI172
aI179
aI116
aI181
aI153
aI124
aI191
atp2629
Rp2630
sI14
g1989
((lp2631
I133
aI134
aI158
aI174
aI144
aI149
aI118
aI156
aI189
aI190
aI182
atp2632
Rp2633
sI15
g1989
((lp2634
I166
aI103
aI171
aI140
aI174
aI145
aI178
aI118
aI156
aI126
aI191
atp2635
Rp2636
sI16
g1989
((lp2637
I129
aI133
aI134
aI135
aI171
aI140
aI144
aI178
aI115
aI180
atp2638
Rp2639
sI18
g1989
((lp2640
I131
aI140
aI142
aI144
aI145
aI161
aI165
aI166
aI173
aI174
aI177
aI180
aI182
aI184
aI187
aI190
aI197
aI198
aI199
aI111
aI114
aI115
aI121
aI124
atp2641
Rp2642
sI19
g1989
((lp2643
I193
aI195
aI132
aI166
aI168
aI109
aI141
aI178
aI116
aI159
atp2644
Rp2645
sI20
g1989
((lp2646
I161
aI163
aI132
aI101
aI102
aI199
aI105
aI167
aI172
aI109
aI174
aI112
aI145
aI116
aI149
aI120
aI186
aI133
atp2647
Rp2648
sI21
g1989
((lp2649
I114
aI102
aI135
aI105
aI106
aI173
aI178
aI147
aI180
aI120
aI155
aI188
atp2650
Rp2651
sI22
g1989
((lp2652
I144
aI194
aI195
aI101
aI198
aI103
aI172
aI193
aI167
aI140
aI189
aI112
aI145
aI178
aI148
aI182
aI120
aI122
aI123
aI156
aI186
atp2653
Rp2654
sI23
g1989
((lp2655
I194
aI163
aI135
aI151
aI142
aI174
aI145
aI147
aI155
aI149
aI183
aI153
aI187
aI126
aI191
atp2656
Rp2657
sI24
g1989
((lp2658
I192
aI198
aI136
aI140
aI110
aI142
aI143
aI149
aI120
aI189
aI190
atp2659
Rp2660
sI25
g1989
((lp2661
I131
aI101
aI198
aI103
aI171
aI140
aI173
aI174
aI181
aI184
aI123
aI127
atp2662
Rp2663
sI26
g1989
((lp2664
I192
aI133
aI198
aI136
aI106
aI107
aI140
aI142
aI157
aI144
aI177
aI116
aI118
aI151
aI184
aI186
aI123
aI125
atp2665
Rp2666
sI27
g1989
((lp2667
I162
aI168
aI138
aI142
aI115
aI182
aI187
aI124
atp2668
Rp2669
sI29
g1989
((lp2670
I161
aI164
aI102
aI199
aI136
aI156
aI106
aI103
aI109
aI142
aI114
aI147
aI116
aI183
aI153
aI122
aI124
aI154
aI158
aI159
atp2671
Rp2672
sI31
g1989
((lp2673
I140
aI106
aI108
aI142
aI143
aI120
aI186
aI123
aI156
aI125
aI158
atp2674
Rp2675
sI32
g1989
((lp2676
I192
aI194
aI115
aI164
aI101
aI195
aI162
aI138
aI183
aI141
aI142
aI143
aI147
aI180
aI149
aI186
aI122
aI123
aI125
aI158
aI159
atp2677
Rp2678
sI33
g1989
((lp2679
I149
aI194
aI195
aI132
aI102
aI199
aI168
aI106
aI144
aI200
aI126
aI153
aI122
aI190
aI159
atp2680
Rp2681
sI34
g1989
((lp2682
I192
aI193
aI163
aI165
aI198
aI167
aI161
aI106
aI171
aI112
aI144
aI153
aI188
aI138
aI126
aI191
atp2683
Rp2684
sI36
g1989
((lp2685
I194
aI131
aI103
aI138
aI115
aI180
aI117
aI183
aI120
aI124
aI158
aI159
atp2686
Rp2687
sI38
g1989
((lp2688
I192
aI101
aI134
aI138
aI171
aI180
aI181
aI118
aI151
aI153
aI122
aI187
aI189
atp2689
Rp2690
sI39
g1989
((lp2691
I166
aI199
aI106
aI107
aI172
aI174
aI144
aI178
aI115
aI123
aI127
atp2692
Rp2693
sI40
g1989
((lp2694
I102
aI134
aI167
aI105
aI171
aI173
aI147
aI117
aI118
aI153
aI154
atp2695
Rp2696
sI41
g1989
((lp2697
I192
aI129
aI162
aI133
aI167
aI193
aI108
aI173
aI110
aI111
aI145
aI114
aI149
aI151
aI120
aI109
aI191
atp2698
Rp2699
sI42
g1989
((lp2700
I129
aI199
aI200
aI105
aI135
aI173
aI174
aI179
aI116
aI149
aI122
aI123
aI124
aI157
aI158
atp2701
Rp2702
sI43
g1989
((lp2703
I129
aI131
aI133
aI198
aI200
aI173
aI109
aI112
aI115
aI153
aI121
aI156
atp2704
Rp2705
sI44
g1989
((lp2706
I134
aI103
aI135
aI108
aI142
aI111
aI144
aI180
aI120
aI187
atp2707
Rp2708
sI45
g1989
((lp2709
I192
aI129
aI194
aI166
aI167
aI168
aI161
aI138
aI126
aI144
aI181
aI151
aI190
atp2710
Rp2711
sI47
g1989
((lp2712
I131
aI166
aI134
aI199
aI105
aI138
aI167
aI108
aI189
aI145
aI140
aI172
aI116
aI181
aI154
aI119
aI179
aI157
atp2713
Rp2714
sI49
g1989
((lp2715
I161
aI164
aI197
aI102
aI103
aI140
aI172
aI109
aI142
aI111
aI144
aI145
aI124
aI117
aI182
aI184
aI121
aI186
aI101
aI118
aI181
atp2716
Rp2717
sI50
g1989
((lp2718
I195
aI132
aI135
aI168
aI172
aI143
aI147
aI148
aI182
aI120
aI191
atp2719
Rp2720
sI51
g1989
((lp2721
I131
aI140
aI158
aI147
aI149
aI122
aI155
aI156
aI190
atp2722
Rp2723
sI52
g1989
((lp2724
I192
aI199
aI136
aI103
aI178
aI147
aI148
aI127
aI191
atp2725
Rp2726
sI53
g1989
((lp2727
I129
aI133
aI144
aI178
aI180
aI120
aI122
aI127
atp2728
Rp2729
sI54
g1989
((lp2730
I161
aI195
aI165
aI166
aI138
aI107
aI140
aI115
aI149
aI154
atp2731
Rp2732
sI55
g1989
((lp2733
I129
aI164
aI133
aI103
aI174
aI112
aI154
aI190
aI191
atp2734
Rp2735
sI56
g1989
((lp2736
I129
aI132
aI101
aI134
aI107
aI149
aI123
atp2737
Rp2738
sI57
g1989
((lp2739
I129
aI114
aI107
aI157
aI149
atp2740
Rp2741
sI58
g1989
((lp2742
I182
aI102
aI103
aI105
aI151
aI172
aI141
aI110
aI148
aI118
aI119
aI186
aI134
atp2743
Rp2744
sI59
g1989
((lp2745
I103
aI138
aI183
aI111
aI117
aI119
aI153
aI187
aI156
aI158
aI159
atp2746
Rp2747
sI60
g1989
((lp2748
I163
aI165
aI166
aI168
aI105
aI109
aI112
aI125
aI133
atp2749
Rp2750
sI61
g1989
((lp2751
I103
aI168
aI111
aI144
aI116
aI120
aI186
atp2752
Rp2753
sI62
g1989
((lp2754
I166
aI136
aI171
aI111
aI118
aI184
aI153
aI122
atp2755
Rp2756
sI63
g1989
((lp2757
I193
aI101
aI134
aI167
aI200
aI109
aI173
aI143
aI177
aI149
atp2758
Rp2759
sI65
g1989
((lp2760
I198
aI131
aI164
aI166
aI134
aI105
aI106
aI109
aI174
aI112
aI114
aI147
aI118
aI184
aI163
aI188
aI189
aI159
atp2761
Rp2762
sI66
g1989
((lp2763
I129
aI162
aI166
aI200
aI124
aI107
aI108
aI194
aI141
aI147
aI181
aI118
aI122
aI156
aI159
atp2764
Rp2765
sI67
g1989
((lp2766
I131
aI101
aI134
aI141
aI180
aI149
aI118
aI186
atp2767
Rp2768
sI69
g1989
((lp2769
I120
aI145
aI154
aI179
atp2770
Rp2771
sI70
g1989
((lp2772
I129
aI197
aI164
aI101
aI106
aI127
aI142
aI111
aI114
aI174
aI151
aI184
aI187
aI158
aI191
atp2773
Rp2774
sI71
g1989
((lp2775
I107
aI111
aI144
aI145
aI149
aI153
aI123
aI189
aI126
atp2776
Rp2777
sI72
g1989
((lp2778
I198
aI145
aI177
aI182
aI121
aI158
atp2779
Rp2780
sI73
g1989
((lp2781
I162
aI131
aI132
aI133
aI134
aI135
aI200
aI103
aI141
aI110
aI177
aI119
aI184
aI123
aI125
atp2782
Rp2783
sI74
g1989
((lp2784
I129
aI102
aI178
aI147
aI181
aI120
aI126
atp2785
Rp2786
sI75
g1989
((lp2787
I129
aI163
aI164
aI167
aI106
aI171
aI140
aI177
aI190
aI159
atp2788
Rp2789
sI76
g1989
((lp2790
I198
aI199
aI172
aI174
aI116
aI110
aI183
aI124
atp2791
Rp2792
sI77
g1989
((lp2793
I134
aI103
aI107
aI140
aI141
aI157
aI167
aI191
atp2794
Rp2795
sI78
g1989
((lp2796
I129
aI115
aI164
aI101
aI172
aI107
aI108
aI141
aI184
aI140
aI147
aI118
aI120
aI122
aI123
atp2797
Rp2798
sI79
g1989
((lp2799
I129
aI163
aI147
aI165
aI198
aI135
aI105
aI119
aI142
aI102
aI115
aI117
aI151
aI120
aI103
aI125
aI197
atp2800
Rp2801
sI82
g1989
((lp2802
I193
aI164
aI161
aI168
aI142
aI149
aI118
aI157
aI158
atp2803
Rp2804
sI83
g1989
((lp2805
I195
aI167
aI173
aI109
aI114
aI180
aI181
aI151
aI159
atp2806
Rp2807
sI84
g1989
((lp2808
I144
aI134
aI102
aI167
aI136
aI168
aI112
aI177
aI147
aI120
aI187
aI101
aI159
atp2809
Rp2810
sI85
g1989
((lp2811
I165
aI167
aI107
aI157
aI186
aI156
aI189
aI126
atp2812
Rp2813
sI86
g1989
((lp2814
I131
aI103
aI171
aI143
aI145
aI180
aI158
atp2815
Rp2816
sI88
g1989
((lp2817
I136
aI171
aI145
aI147
aI121
aI122
aI189
aI126
atp2818
Rp2819
sI90
g1989
((lp2820
I195
aI163
aI166
aI135
aI136
aI106
aI171
aI115
aI155
aI120
aI187
atp2821
Rp2822
sI91
g1989
((lp2823
I157
aI132
aI149
aI166
aI165
atp2824
Rp2825
sI92
g1989
((lp2826
I131
aI133
aI166
aI171
aI144
aI148
aI118
aI180
aI154
atp2827
Rp2828
sI93
g1989
((lp2829
I147
aI106
aI179
aI118
aI119
aI159
atp2830
Rp2831
sI94
g1989
((lp2832
I131
aI132
aI134
aI142
aI116
aI187
aI156
aI125
aI158
atp2833
Rp2834
sI95
g1989
((lp2835
I173
aI167
aI109
aI195
aI101
atp2836
Rp2837
sI96
g1989
((lp2838
I192
aI194
aI164
aI198
aI138
aI173
aI115
aI187
aI124
aI189
aI126
atp2839
Rp2840
sI97
g1989
((lp2841
I163
aI133
aI136
aI106
aI174
aI147
aI148
aI149
aI119
aI184
atp2842
Rp2843
sI98
g1989
((lp2844
I136
aI171
aI116
aI141
aI125
atp2845
Rp2846
sI99
g1989
((lp2847
I136
aI177
aI106
aI131
aI158
atp2848
Rp2849
sI100
g1989
((lp2850
I193
aI165
aI198
aI129
aI200
aI106
aI172
aI110
aI115
aI174
aI101
atp2851
Rp2852
sI101
g1989
((lp2853
I32
aI1
aI67
aI100
aI38
aI70
aI78
aI49
aI20
aI22
aI56
aI25
aI63
aI84
aI95
atp2854
Rp2855
sI102
g1989
((lp2856
I33
aI2
aI3
aI40
aI9
aI74
aI79
aI49
aI84
aI21
aI20
aI58
aI29
atp2857
Rp2858
sI103
g1989
((lp2859
I3
aI36
aI86
aI44
aI9
aI79
aI11
aI73
aI77
aI15
aI49
aI29
aI52
aI22
aI55
aI25
aI58
aI59
aI61
atp2860
Rp2861
sI105
g1989
((lp2862
I65
aI2
aI40
aI42
aI12
aI47
aI20
aI21
aI58
aI79
aI60
atp2863
Rp2864
sI106
g1989
((lp2865
I33
aI2
aI3
aI100
aI6
aI65
aI97
aI75
aI34
aI29
aI26
aI99
aI21
aI39
aI90
aI70
aI93
aI31
atp2866
Rp2867
sI107
g1989
((lp2868
I66
aI71
aI8
aI10
aI39
aI77
aI78
aI85
aI54
aI56
aI57
aI26
atp2869
Rp2870
sI108
g1989
((lp2871
I66
aI41
aI44
aI78
aI47
aI31
atp2872
Rp2873
sI109
g1989
((lp2874
I65
aI83
aI7
aI41
aI43
aI49
aI19
aI20
aI63
aI60
aI29
aI95
atp2875
Rp2876
sI110
g1989
((lp2877
I3
aI100
aI5
aI7
aI73
aI76
aI41
aI24
aI58
atp2878
Rp2879
sI111
g1989
((lp2880
I1
aI70
aI71
aI8
aI41
aI44
aI49
aI18
aI59
aI61
aI62
atp2881
Rp2882
sI112
g1989
((lp2883
I65
aI34
aI3
aI8
aI43
aI84
aI22
aI55
aI20
aI60
atp2884
Rp2885
sI114
g1989
((lp2886
I65
aI3
aI70
aI6
aI7
aI41
aI18
aI83
aI21
aI57
aI29
atp2887
Rp2888
sI115
g1989
((lp2889
I96
aI32
aI3
aI100
aI39
aI8
aI43
aI78
aI79
aI16
aI18
aI54
aI36
aI90
aI27
atp2890
Rp2891
sI116
g1989
((lp2892
I98
aI12
aI42
aI76
aI29
aI19
aI20
aI9
aI26
aI47
aI61
aI94
atp2893
Rp2894
sI117
g1989
((lp2895
I40
aI49
aI59
aI36
aI79
atp2896
Rp2897
sI118
g1989
((lp2898
I65
aI66
aI67
aI38
aI40
aI82
aI14
aI15
aI49
aI26
aI78
aI58
aI92
aI93
aI62
atp2899
Rp2900
sI119
g1989
((lp2901
I1
aI5
aI97
aI8
aI73
aI79
aI47
aI9
aI58
aI59
aI93
atp2902
Rp2903
sI120
g1989
((lp2904
I3
aI36
aI5
aI7
aI41
aI74
aI44
aI78
aI79
aI50
aI84
aI21
aI22
aI9
aI24
aI20
aI90
aI31
aI61
aI69
aI53
atp2905
Rp2906
sI121
g1989
((lp2907
I2
aI43
aI72
aI11
aI49
aI18
aI8
aI88
atp2908
Rp2909
sI122
g1989
((lp2910
I32
aI33
aI66
aI3
aI38
aI9
aI42
aI2
aI78
aI51
aI53
aI22
aI88
aI29
aI62
atp2911
Rp2912
sI123
g1989
((lp2913
I32
aI71
aI73
aI42
aI39
aI78
aI22
aI56
aI25
aI26
aI10
aI31
atp2914
Rp2915
sI124
g1989
((lp2916
I96
aI66
aI3
aI36
aI7
aI8
aI76
aI42
aI12
aI49
aI18
aI27
aI29
atp2917
Rp2918
sI125
g1989
((lp2919
I32
aI1
aI98
aI73
aI10
aI79
aI26
aI60
aI94
aI31
atp2920
Rp2921
sI126
g1989
((lp2922
I96
aI33
aI34
aI1
aI71
aI74
aI45
aI15
aI85
aI23
aI88
atp2923
Rp2924
sI127
g1989
((lp2925
I70
aI39
aI9
aI52
aI53
aI25
atp2926
Rp2927
sI129
g1989
((lp2928
I66
aI43
aI100
aI70
aI8
aI41
aI42
aI75
aI45
aI78
aI79
aI16
aI3
aI74
aI53
aI55
aI56
aI57
aI10
atp2929
Rp2930
sI131
g1989
((lp2931
I51
aI99
aI36
aI65
aI73
aI43
aI47
aI18
aI67
aI86
aI25
aI92
aI94
atp2932
Rp2933
sI132
g1989
((lp2934
I1
aI33
aI6
aI7
aI73
aI50
aI19
aI20
aI56
aI91
aI94
atp2935
Rp2936
sI133
g1989
((lp2937
I97
aI43
aI1
aI6
aI7
aI41
aI11
aI14
aI60
aI16
aI20
aI53
aI73
aI55
aI26
aI92
atp2938
Rp2939
sI134
g1989
((lp2940
I65
aI67
aI6
aI38
aI1
aI40
aI73
aI44
aI77
aI14
aI47
aI16
aI84
aI56
aI58
aI94
aI63
atp2941
Rp2942
sI135
g1989
((lp2943
I73
aI42
aI11
aI44
aI79
aI16
aI50
aI21
aI23
aI90
atp2944
Rp2945
sI136
g1989
((lp2946
I1
aI98
aI99
aI90
aI97
aI24
aI52
aI88
aI84
aI26
aI29
aI62
atp2947
Rp2948
sI138
g1989
((lp2949
I96
aI32
aI34
aI59
aI36
aI6
aI38
aI9
aI45
aI47
aI54
aI27
atp2950
Rp2951
sI140
g1989
((lp2952
I3
aI54
aI75
aI77
aI78
aI15
aI16
aI49
aI18
aI51
aI22
aI24
aI25
aI26
aI47
aI31
atp2953
Rp2954
sI141
g1989
((lp2955
I32
aI1
aI98
aI67
aI73
aI11
aI66
aI78
aI77
aI19
aI58
atp2956
Rp2957
sI142
g1989
((lp2958
I32
aI2
aI70
aI10
aI44
aI18
aI79
aI49
aI82
aI23
aI24
aI26
aI27
aI29
aI94
aI31
atp2959
Rp2960
sI143
g1989
((lp2961
I32
aI6
aI50
aI86
aI24
aI31
aI63
atp2962
Rp2963
sI144
g1989
((lp2964
I33
aI34
aI71
aI7
aI9
aI39
aI44
aI2
aI14
aI45
aI16
aI49
aI18
aI84
aI53
aI22
aI26
aI92
aI61
atp2965
Rp2966
sI145
g1989
((lp2967
I22
aI7
aI8
aI41
aI71
aI47
aI49
aI18
aI20
aI86
aI23
aI88
aI72
aI15
aI69
atp2968
Rp2969
sI147
g1989
((lp2970
I32
aI97
aI66
aI3
aI1
aI93
aI65
aI40
aI74
aI7
aI78
aI79
aI50
aI51
aI84
aI21
aI23
aI88
aI52
aI29
atp2971
Rp2972
sI148
g1989
((lp2973
I97
aI2
aI50
aI52
aI22
aI58
aI92
atp2974
Rp2975
sI149
g1989
((lp2976
I32
aI97
aI67
aI33
aI41
aI42
aI71
aI14
aI24
aI82
aI51
aI20
aI54
aI23
aI56
aI57
aI91
aI63
atp2977
Rp2978
sI151
g1989
((lp2979
I38
aI70
aI41
aI11
aI45
aI79
aI83
aI23
aI26
aI58
atp2980
Rp2981
sI153
g1989
((lp2982
I33
aI34
aI38
aI71
aI40
aI43
aI12
aI23
aI59
aI29
aI62
atp2983
Rp2984
sI154
g1989
((lp2985
I69
aI40
aI47
aI54
aI55
aI92
aI29
aI5
atp2986
Rp2987
sI155
g1989
((lp2988
I3
aI10
aI51
aI21
aI23
aI90
atp2989
Rp2990
sI156
g1989
((lp2991
I66
aI43
aI14
aI15
aI51
aI85
aI22
aI59
aI29
aI94
aI31
atp2992
Rp2993
sI157
g1989
((lp2994
I1
aI5
aI6
aI7
aI42
aI77
aI47
aI82
aI85
aI57
aI26
aI91
atp2995
Rp2996
sI158
g1989
((lp2997
I32
aI99
aI36
aI70
aI72
aI9
aI42
aI14
aI82
aI51
aI86
aI59
aI29
aI94
aI31
atp2998
Rp2999
sI159
g1989
((lp3000
I32
aI1
aI83
aI36
aI65
aI33
aI75
aI66
aI93
aI19
aI84
aI59
aI29
atp3001
Rp3002
sI161
g1989
((lp3003
I34
aI82
aI5
aI45
aI49
aI18
aI20
aI54
aI29
atp3004
Rp3005
sI162
g1989
((lp3006
I32
aI1
aI66
aI7
aI9
aI12
aI41
aI73
aI27
atp3007
Rp3008
sI163
g1989
((lp3009
I97
aI2
aI65
aI75
aI34
aI79
aI20
aI23
aI90
aI60
atp3010
Rp3011
sI164
g1989
((lp3012
I32
aI96
aI70
aI7
aI75
aI78
aI49
aI82
aI55
aI29
aI65
atp3013
Rp3014
sI165
g1989
((lp3015
I2
aI3
aI100
aI11
aI34
aI79
aI18
aI85
aI54
aI91
aI60
atp3016
Rp3017
sI166
g1989
((lp3018
I65
aI66
aI7
aI15
aI9
aI39
aI60
aI45
aI47
aI18
aI19
aI54
aI90
aI91
aI92
aI62
atp3019
Rp3020
sI167
g1989
((lp3021
I1
aI34
aI7
aI40
aI41
aI75
aI45
aI47
aI77
aI83
aI20
aI85
aI22
aI84
aI95
aI63
atp3022
Rp3023
sI168
g1989
((lp3024
I1
aI50
aI33
aI45
aI82
aI19
aI84
aI27
aI60
aI61
atp3025
Rp3026
sI171
g1989
((lp3027
I2
aI98
aI38
aI8
aI75
aI34
aI15
aI16
aI40
aI86
aI88
aI25
aI90
aI92
aI62
atp3028
Rp3029
sI172
g1989
((lp3030
I100
aI39
aI76
aI12
aI78
aI47
aI49
aI50
aI20
aI22
aI58
atp3031
Rp3032
sI173
g1989
((lp3033
I96
aI1
aI6
aI40
aI41
aI42
aI43
aI18
aI83
aI21
aI25
aI95
aI63
atp3034
Rp3035
sI174
g1989
((lp3036
I97
aI3
aI100
aI70
aI65
aI8
aI42
aI23
aI76
aI14
aI15
aI18
aI20
aI55
aI25
aI39
atp3037
Rp3038
sI177
g1989
((lp3039
I1
aI99
aI72
aI73
aI75
aI18
aI84
aI26
aI63
atp3040
Rp3041
sI178
g1989
((lp3042
I39
aI74
aI11
aI15
aI16
aI19
aI52
aI21
aI22
aI53
atp3043
Rp3044
sI179
g1989
((lp3045
I5
aI42
aI12
aI47
aI93
aI69
atp3046
Rp3047
sI180
g1989
((lp3048
I32
aI67
aI36
aI38
aI44
aI16
aI18
aI83
aI53
aI86
aI92
aI21
atp3049
Rp3050
sI181
g1989
((lp3051
I66
aI38
aI9
aI74
aI12
aI45
aI47
aI49
aI83
aI25
atp3052
Rp3053
sI182
g1989
((lp3054
I6
aI72
aI18
aI14
aI49
aI50
aI22
aI58
aI27
atp3055
Rp3056
sI183
g1989
((lp3057
I32
aI36
aI76
aI23
aI59
aI29
atp3058
Rp3059
sI184
g1989
((lp3060
I65
aI70
aI97
aI73
aI78
aI49
aI18
aI9
aI25
aI26
aI62
atp3061
Rp3062
sI186
g1989
((lp3063
I32
aI67
aI5
aI49
aI58
aI20
aI85
aI22
aI26
aI61
aI31
atp3064
Rp3065
sI187
g1989
((lp3066
I96
aI59
aI70
aI38
aI7
aI44
aI18
aI84
aI23
aI90
aI27
aI94
atp3067
Rp3068
sI188
g1989
((lp3069
I65
aI34
aI12
aI5
aI21
atp3070
Rp3071
sI189
g1989
((lp3072
I96
aI65
aI38
aI71
aI8
aI14
aI47
aI88
aI85
aI22
aI24
atp3073
Rp3074
sI190
g1989
((lp3075
I33
aI1
aI9
aI75
aI45
aI14
aI18
aI51
aI55
aI24
atp3076
Rp3077
sI191
g1989
((lp3078
I34
aI70
aI8
aI9
aI55
aI12
aI77
aI15
aI50
aI52
aI41
aI23
atp3079
Rp3080
sI192
g1989
((lp3081
I96
aI32
aI34
aI38
aI6
aI41
aI11
aI12
aI45
aI52
aI24
aI26
atp3082
Rp3083
sI193
g1989
((lp3084
I34
aI100
aI8
aI41
aI82
aI19
aI22
aI63
atp3085
Rp3086
sI194
g1989
((lp3087
I32
aI96
aI66
aI36
aI33
aI45
aI22
aI23
atp3088
Rp3089
sI195
g1989
((lp3090
I32
aI33
aI83
aI54
aI6
aI50
aI19
aI22
aI90
aI95
atp3091
Rp3092
sI197
g1989
((lp3093
I49
aI18
aI70
aI79
atp3094
Rp3095
sI198
g1989
((lp3096
I96
aI65
aI34
aI100
aI7
aI72
aI43
aI76
aI79
aI18
aI22
aI24
aI25
aI26
atp3097
Rp3098
sI199
g1989
((lp3099
I33
aI39
aI42
aI76
aI47
aI18
aI20
aI52
aI29
atp3100
Rp3101
sI200
g1989
((lp3102
I33
aI66
aI3
aI100
aI73
aI42
aI43
aI63
atp3103
Rp3104
sa(dp3105
I1
I1
sa(dp3106
I1
I2
sa(dp3107
I1
g1989
((lp3108
I1
aI2
aI3
aI4
aI5
aI6
aI7
aI8
aI9
aI10
aI11
aI12
aI13
aI14
aI15
aI16
aI17
aI18
aI19
aI20
aI21
aI22
aI23
aI24
aI25
aI26
aI27
aI28
aI29
aI30
aI31
aI32
aI33
aI34
aI35
aI36
aI37
aI38
aI39
aI40
aI41
aI42
aI43
aI44
aI45
aI46
aI47
aI48
aI49
aI50
aI51
aI52
aI53
aI54
aI55
aI56
aI57
aI58
aI59
aI60
aI61
aI62
aI63
aI64
aI65
aI66
aI67
aI68
aI69
aI70
aI71
aI72
aI73
aI74
aI75
aI76
aI77
aI78
aI79
aI80
aI81
aI82
aI83
aI84
aI85
aI86
aI87
aI88
aI89
aI90
aI91
aI92
aI93
aI94
aI95
aI96
aI97
aI98
aI99
aI100
aI101
aI102
aI103
aI104
aI105
aI106
aI107
aI108
aI109
aI110
aI111
aI112
aI113
aI114
aI115
aI116
aI117
aI118
aI119
aI120
aI121
aI122
aI123
aI124
aI125
aI126
aI127
aI128
aI129
aI130
aI131
aI132
aI133
aI134
aI135
aI136
aI137
aI138
aI139
aI140
aI141
aI142
aI143
aI144
aI145
aI146
aI147
aI148
aI149
aI150
aI151
aI152
aI153
aI154
aI155
aI156
aI157
aI158
aI159
aI160
aI161
aI162
aI163
aI164
aI165
aI166
aI167
aI168
aI169
aI170
aI171
aI172
aI173
aI174
aI175
aI176
aI177
aI178
aI179
aI180
aI181
aI182
aI183
aI184
aI185
aI186
aI187
aI188
aI189
aI190
aI191
aI192
aI193
aI194
aI195
aI196
aI197
aI198
aI199
aI200
atp3109
Rp3110
sa(dp3111
I1
I590
sI2
I590
sa(dp3112
I1
I980
saI0
a(dp3113
I1
g1989
((lp3114
I66
aI195
aI6
aI162
aI136
aI167
aI125
aI34
aI174
aI15
aI114
aI119
aI153
aI26
aI58
atp3115
Rp3116
sI2
g1989
((lp3117
I1
aI132
aI102
aI140
aI108
aI42
aI44
aI145
aI18
aI123
aI29
atp3118
Rp3119
sI3
g1989
((lp3120
I161
aI194
aI3
aI197
aI198
aI199
aI200
aI9
aI110
aI47
aI49
aI22
aI155
aI157
aI190
aI127
atp3121
Rp3122
sI4
g1989
((lp3123
I91
aI166
aI134
aI72
aI106
aI43
aI88
aI115
aI158
aI56
aI59
aI92
aI93
aI126
aI63
atp3124
Rp3125
sI5
g1989
((lp3126
I147
aI149
aI67
aI36
aI103
aI74
aI109
aI14
aI19
aI53
aI25
aI122
aI62
aI95
atp3127
Rp3128
sI6
g1989
((lp3129
I97
aI98
aI99
aI100
aI133
aI10
aI107
aI141
aI131
aI55
aI120
aI57
aI90
aI27
aI124
aI61
aI94
aI165
atp3130
Rp3131
sI7
g1989
((lp3132
I32
aI2
aI187
aI164
aI135
aI8
aI45
aI40
aI148
aI117
aI23
aI180
aI168
aI189
aI181
atp3133
Rp3134
sI8
g1989
((lp3135
I112
aI171
aI71
aI73
aI11
aI12
aI173
aI111
aI16
aI84
aI21
aI54
aI121
aI184
aI116
aI154
atp3136
Rp3137
sI9
g1989
((lp3138
I96
aI69
aI70
aI39
aI105
aI138
aI75
aI76
aI178
aI177
aI50
aI179
aI52
aI85
aI182
aI151
aI186
aI60
aI183
atp3139
Rp3140
sI10
g1989
((lp3141
I192
aI193
aI83
aI163
aI5
aI38
aI188
aI191
aI172
aI77
aI78
aI79
aI82
aI51
aI86
aI143
aI156
aI159
atp3142
Rp3143
sI11
g1989
((lp3144
I33
aI101
aI65
aI7
aI129
aI41
aI142
aI144
aI20
aI118
aI24
aI31
atp3145
Rp3146
sI12
g1989
((lp3147
I4
aI37
aI13
aI46
aI28
aI30
atp3148
Rp3149
sI13
g1989
((lp3150
I64
aI80
aI35
aI68
aI81
aI48
aI17
aI87
aI89
atp3151
Rp3152
sI14
g1989
((lp3153
I128
aI130
aI104
aI137
aI113
aI146
atp3154
Rp3155
sI15
g1989
((lp3156
I160
aI196
aI169
aI170
aI139
aI175
aI176
aI150
aI152
aI185
atp3157
Rp3158
sa.