(lp0
(dp1
I1
I0
sI2
I1
sI3
I2
sI4
I3
sI5
I4
sI6
I5
sI7
I6
sI8
I7
sI9
I2
sI10
I8
sI11
I9
sI12
I9
sI13
I3
sI14
I10
sI15
I5
sI16
I9
sI17
I11
sI18
I0
sI19
I10
sI20
I6
sI21
I9
sI22
I2
sI23
I1
sI24
I6
sI25
I10
sI26
I5
sI27
I8
sI28
I3
sI29
I0
sI30
I3
sI31
I6
sI32
I1
sI33
I6
sI34
I5
sI35
I12
sI36
I10
sI37
I3
sI38
I4
sI39
I13
sI40
I1
sI41
I6
sI42
I0
sI43
I14
sI44
I0
sI45
I1
sI46
I3
sI47
I2
sI48
I12
sI49
I2
sI50
I13
sI51
I4
sI52
I13
sI53
I10
sI54
I9
sI55
I8
sI56
I14
sI57
I8
sI58
I5
sI59
I14
sI60
I13
sI61
I8
sI62
I10
sI63
I14
sI64
I12
sI65
I6
sI66
I5
sI67
I10
sI68
I12
sI69
I13
sI70
I13
sI71
I9
sI72
I14
sI73
I9
sI74
I10
sI75
I13
sI76
I13
sI77
I4
sI78
I4
sI79
I4
sI80
I12
sI81
I12
sI82
I4
sI83
I4
sI84
I9
sI85
I13
sI86
I4
sI87
I12
sI88
I14
sI89
I12
sI90
I8
sI91
I14
sI92
I14
sI93
I14
sI94
I8
sI95
I10
sI96
I13
sI97
I8
sI98
I8
sI99
I8
sI100
I8
sI101
I15
sI102
I12
sI103
I16
sI104
I17
sI105
I10
sI106
I6
sI107
I14
sI108
I12
sI109
I16
sI110
I18
sI111
I7
sI112
I7
sI113
I17
sI114
I5
sI115
I6
sI116
I7
sI117
I19
sI118
I15
sI119
I5
sI120
I14
sI121
I7
sI122
I16
sI123
I12
sI124
I14
sI125
I5
sI126
I6
sI127
I18
sI128
I17
sI129
I15
sI130
I17
sI131
I14
sI132
I12
sI133
I14
sI134
I6
sI135
I19
sI136
I5
sI137
I17
sI138
I10
sI139
I20
sI140
I12
sI141
I14
sI142
I15
sI143
I11
sI144
I15
sI145
I12
sI146
I17
sI147
I16
sI148
I19
sI149
I16
sI150
I20
sI151
I10
sI152
I20
sI153
I5
sI154
I7
sI155
I18
sI156
I11
sI157
I18
sI158
I6
sI159
I11
sI160
I20
sI161
I18
sI162
I5
sI163
I11
sI164
I19
sI165
I14
sI166
I6
sI167
I5
sI168
I19
sI169
I20
sI170
I20
sI171
I7
sI172
I11
sI173
I7
sI174
I5
sI175
I20
sI176
I20
sI177
I10
sI178
I10
sI179
I10
sI180
I19
sI181
I19
sI182
I10
sI183
I10
sI184
I7
sI185
I20
sI186
I10
sI187
I19
sI188
I11
sI189
I19
sI190
I18
sI191
I11
sI192
I11
sI193
I11
sI194
I18
sI195
I5
sI196
I20
sI197
I18
sI198
I18
sI199
I18
sI200
I18
sa(dp2
I0
I0
sI1
I1
sI2
I2
sI3
I3
sI4
I4
sI5
I5
sI6
I6
sI7
I1
sI8
I7
sI9
I8
sI10
I9
sI11
I0
sI12
I0
sI13
I10
sI14
I11
sI15
I12
sI16
I13
sI17
I14
sI18
I15
sI19
I16
sI20
I17
sa.