(dp0
I1
I0
sI2
I1
sI3
I2
sI4
I3
sI5
I4
sI6
I5
sI7
I6
sI8
I1
sI9
I2
sI10
I7
sI11
I8
sI12
I8
sI13
I3
sI14
I9
sI15
I5
sI16
I8
sI17
I10
sI18
I0
sI19
I9
sI20
I6
sI21
I8
sI22
I2
sI23
I1
sI24
I6
sI25
I9
sI26
I11
sI27
I7
sI28
I3
sI29
I0
sI30
I3
sI31
I6
sI32
I1
sI33
I6
sI34
I5
sI35
I10
sI36
I9
sI37
I3
sI38
I12
sI39
I13
sI40
I1
sI41
I6
sI42
I0
sI43
I14
sI44
I0
sI45
I1
sI46
I3
sI47
I2
sI48
I10
sI49
I2
sI50
I13
sI51
I15
sI52
I13
sI53
I9
sI54
I8
sI55
I7
sI56
I14
sI57
I7
sI58
I5
sI59
I14
sI60
I13
sI61
I7
sI62
I9
sI63
I14
sI64
I10
sI65
I6
sI66
I5
sI67
I9
sI68
I10
sI69
I13
sI70
I13
sI71
I8
sI72
I14
sI73
I8
sI74
I9
sI75
I13
sI76
I13
sI77
I12
sI78
I12
sI79
I12
sI80
I10
sI81
I10
sI82
I12
sI83
I12
sI84
I8
sI85
I13
sI86
I12
sI87
I10
sI88
I14
sI89
I10
sI90
I7
sI91
I14
sI92
I14
sI93
I14
sI94
I7
sI95
I9
sI96
I13
sI97
I7
sI98
I7
sI99
I7
sI100
I7
sI101
I16
sI102
I2
sI103
I9
sI104
I14
sI105
I17
sI106
I10
sI107
I18
sI108
I2
sI109
I9
sI110
I19
sI111
I11
sI112
I11
sI113
I14
sI114
I20
sI115
I10
sI116
I11
sI117
I4
sI118
I16
sI119
I20
sI120
I21
sI121
I11
sI122
I9
sI123
I2
sI124
I21
sI125
I20
sI126
I10
sI127
I19
sI128
I12
sI129
I16
sI130
I8
sI131
I18
sI132
I2
sI133
I21
sI134
I10
sI135
I4
sI136
I20
sI137
I14
sI138
I17
sI139
I15
sI140
I2
sI141
I18
sI142
I16
sI143
I22
sI144
I16
sI145
I2
sI146
I14
sI147
I9
sI148
I4
sI149
I9
sI150
I15
sI151
I17
sI152
I15
sI153
I20
sI154
I11
sI155
I19
sI156
I22
sI157
I19
sI158
I10
sI159
I22
sI160
I15
sI161
I19
sI162
I20
sI163
I22
sI164
I4
sI165
I18
sI166
I10
sI167
I20
sI168
I4
sI169
I15
sI170
I15
sI171
I11
sI172
I22
sI173
I11
sI174
I20
sI175
I15
sI176
I15
sI177
I17
sI178
I17
sI179
I17
sI180
I4
sI181
I4
sI182
I17
sI183
I17
sI184
I11
sI185
I15
sI186
I17
sI187
I4
sI188
I22
sI189
I4
sI190
I19
sI191
I22
sI192
I22
sI193
I22
sI194
I19
sI195
I20
sI196
I15
sI197
I19
sI198
I19
sI199
I19
sI200
I19
s.