(lp0
(dp1
I1
I0
sI2
I1
sI3
I2
sI4
I3
sI5
I4
sI6
I5
sI7
I6
sI8
I1
sI9
I2
sI10
I7
sI11
I8
sI12
I9
sI13
I3
sI14
I10
sI15
I5
sI16
I9
sI17
I11
sI18
I0
sI19
I10
sI20
I6
sI21
I9
sI22
I2
sI23
I1
sI24
I6
sI25
I10
sI26
I5
sI27
I7
sI28
I3
sI29
I0
sI30
I3
sI31
I6
sI32
I1
sI33
I6
sI34
I5
sI35
I11
sI36
I10
sI37
I3
sI38
I4
sI39
I12
sI40
I1
sI41
I6
sI42
I0
sI43
I13
sI44
I0
sI45
I1
sI46
I3
sI47
I2
sI48
I11
sI49
I2
sI50
I12
sI51
I4
sI52
I12
sI53
I10
sI54
I9
sI55
I7
sI56
I13
sI57
I7
sI58
I5
sI59
I13
sI60
I12
sI61
I7
sI62
I10
sI63
I13
sI64
I11
sI65
I6
sI66
I5
sI67
I10
sI68
I11
sI69
I12
sI70
I12
sI71
I9
sI72
I13
sI73
I9
sI74
I10
sI75
I12
sI76
I12
sI77
I4
sI78
I4
sI79
I4
sI80
I11
sI81
I11
sI82
I4
sI83
I4
sI84
I9
sI85
I12
sI86
I4
sI87
I11
sI88
I13
sI89
I11
sI90
I7
sI91
I13
sI92
I13
sI93
I13
sI94
I7
sI95
I10
sI96
I12
sI97
I7
sI98
I7
sI99
I7
sI100
I7
sI101
I7
sI102
I14
sI103
I5
sI104
I4
sI105
I15
sI106
I6
sI107
I10
sI108
I14
sI109
I5
sI110
I16
sI111
I17
sI112
I17
sI113
I12
sI114
I8
sI115
I6
sI116
I17
sI117
I9
sI118
I7
sI119
I8
sI120
I10
sI121
I17
sI122
I5
sI123
I14
sI124
I10
sI125
I8
sI126
I6
sI127
I16
sI128
I12
sI129
I7
sI130
I12
sI131
I10
sI132
I14
sI133
I10
sI134
I6
sI135
I18
sI136
I8
sI137
I12
sI138
I15
sI139
I19
sI140
I14
sI141
I10
sI142
I7
sI143
I20
sI144
I7
sI145
I14
sI146
I12
sI147
I5
sI148
I18
sI149
I5
sI150
I19
sI151
I15
sI152
I19
sI153
I8
sI154
I17
sI155
I16
sI156
I20
sI157
I16
sI158
I6
sI159
I20
sI160
I19
sI161
I16
sI162
I8
sI163
I20
sI164
I18
sI165
I10
sI166
I6
sI167
I8
sI168
I18
sI169
I19
sI170
I19
sI171
I17
sI172
I20
sI173
I17
sI174
I8
sI175
I19
sI176
I19
sI177
I15
sI178
I15
sI179
I15
sI180
I18
sI181
I18
sI182
I15
sI183
I15
sI184
I17
sI185
I19
sI186
I15
sI187
I18
sI188
I20
sI189
I18
sI190
I16
sI191
I20
sI192
I20
sI193
I20
sI194
I16
sI195
I8
sI196
I19
sI197
I16
sI198
I16
sI199
I16
sI200
I16
sa(dp2
I0
I0
sI1
I1
sI2
I2
sI3
I3
sI4
I4
sI5
I5
sI6
I5
sI7
I6
sI8
I7
sI9
I7
sI10
I8
sI11
I9
sI12
I4
sI13
I10
sI14
I11
sI15
I12
sI16
I13
sI17
I14
sI18
I4
sI19
I15
sI20
I16
sa.