(lp0
(dp1
I1
I0
sI2
I1
sI3
I2
sI4
I3
sI5
I4
sI6
I5
sI7
I6
sI8
I1
sI9
I7
sI10
I8
sI11
I9
sI12
I9
sI13
I3
sI14
I10
sI15
I5
sI16
I9
sI17
I11
sI18
I0
sI19
I12
sI20
I6
sI21
I9
sI22
I7
sI23
I1
sI24
I6
sI25
I13
sI26
I5
sI27
I14
sI28
I3
sI29
I0
sI30
I3
sI31
I6
sI32
I1
sI33
I6
sI34
I5
sI35
I11
sI36
I13
sI37
I3
sI38
I4
sI39
I15
sI40
I1
sI41
I6
sI42
I0
sI43
I16
sI44
I0
sI45
I1
sI46
I3
sI47
I7
sI48
I11
sI49
I7
sI50
I15
sI51
I4
sI52
I15
sI53
I13
sI54
I9
sI55
I14
sI56
I16
sI57
I14
sI58
I5
sI59
I16
sI60
I15
sI61
I14
sI62
I13
sI63
I16
sI64
I11
sI65
I6
sI66
I5
sI67
I13
sI68
I11
sI69
I15
sI70
I15
sI71
I9
sI72
I16
sI73
I9
sI74
I13
sI75
I15
sI76
I15
sI77
I4
sI78
I4
sI79
I4
sI80
I11
sI81
I11
sI82
I4
sI83
I4
sI84
I9
sI85
I15
sI86
I4
sI87
I11
sI88
I16
sI89
I11
sI90
I14
sI91
I16
sI92
I16
sI93
I16
sI94
I14
sI95
I13
sI96
I15
sI97
I14
sI98
I14
sI99
I14
sI100
I14
sI101
I11
sI102
I4
sI103
I16
sI104
I6
sI105
I9
sI106
I5
sI107
I0
sI108
I4
sI109
I16
sI110
I14
sI111
I17
sI112
I17
sI113
I6
sI114
I2
sI115
I5
sI116
I17
sI117
I13
sI118
I11
sI119
I2
sI120
I0
sI121
I17
sI122
I16
sI123
I4
sI124
I0
sI125
I2
sI126
I5
sI127
I8
sI128
I6
sI129
I11
sI130
I6
sI131
I0
sI132
I4
sI133
I0
sI134
I5
sI135
I10
sI136
I2
sI137
I6
sI138
I9
sI139
I12
sI140
I4
sI141
I0
sI142
I11
sI143
I1
sI144
I11
sI145
I4
sI146
I6
sI147
I16
sI148
I10
sI149
I16
sI150
I12
sI151
I9
sI152
I12
sI153
I2
sI154
I17
sI155
I8
sI156
I1
sI157
I8
sI158
I5
sI159
I1
sI160
I12
sI161
I8
sI162
I2
sI163
I1
sI164
I10
sI165
I0
sI166
I5
sI167
I2
sI168
I10
sI169
I12
sI170
I12
sI171
I17
sI172
I1
sI173
I17
sI174
I2
sI175
I12
sI176
I12
sI177
I9
sI178
I9
sI179
I9
sI180
I10
sI181
I10
sI182
I9
sI183
I9
sI184
I17
sI185
I12
sI186
I9
sI187
I10
sI188
I1
sI189
I10
sI190
I8
sI191
I1
sI192
I1
sI193
I1
sI194
I8
sI195
I2
sI196
I12
sI197
I8
sI198
I8
sI199
I8
sI200
I8
sa(dp2
I0
I0
sI1
I1
sI2
I2
sI3
I3
sI4
I4
sI5
I5
sI6
I6
sI7
I2
sI8
I7
sI9
I8
sI10
I9
sI11
I10
sI12
I3
sI13
I9
sI14
I7
sI15
I11
sI16
I12
sI17
I13
sa.