(lp0
(dp1
I1
I0
sI2
I1
sI3
I2
sI4
I3
sI5
I4
sI6
I4
sI7
I5
sI8
I1
sI9
I2
sI10
I6
sI11
I7
sI12
I7
sI13
I3
sI14
I8
sI15
I4
sI16
I7
sI17
I9
sI18
I0
sI19
I8
sI20
I5
sI21
I7
sI22
I2
sI23
I1
sI24
I10
sI25
I8
sI26
I4
sI27
I6
sI28
I3
sI29
I0
sI30
I3
sI31
I5
sI32
I1
sI33
I5
sI34
I4
sI35
I9
sI36
I8
sI37
I3
sI38
I4
sI39
I11
sI40
I1
sI41
I5
sI42
I0
sI43
I12
sI44
I0
sI45
I1
sI46
I3
sI47
I2
sI48
I9
sI49
I2
sI50
I11
sI51
I4
sI52
I11
sI53
I8
sI54
I7
sI55
I6
sI56
I12
sI57
I6
sI58
I4
sI59
I12
sI60
I11
sI61
I6
sI62
I8
sI63
I12
sI64
I9
sI65
I5
sI66
I4
sI67
I8
sI68
I9
sI69
I11
sI70
I11
sI71
I7
sI72
I12
sI73
I7
sI74
I8
sI75
I11
sI76
I11
sI77
I4
sI78
I4
sI79
I4
sI80
I9
sI81
I9
sI82
I4
sI83
I4
sI84
I7
sI85
I11
sI86
I4
sI87
I9
sI88
I12
sI89
I9
sI90
I6
sI91
I12
sI92
I12
sI93
I12
sI94
I6
sI95
I8
sI96
I11
sI97
I6
sI98
I6
sI99
I6
sI100
I6
sI101
I13
sI102
I14
sI103
I11
sI104
I1
sI105
I10
sI106
I3
sI107
I0
sI108
I14
sI109
I11
sI110
I15
sI111
I4
sI112
I4
sI113
I1
sI114
I5
sI115
I3
sI116
I4
sI117
I16
sI118
I13
sI119
I5
sI120
I0
sI121
I4
sI122
I11
sI123
I14
sI124
I0
sI125
I5
sI126
I3
sI127
I15
sI128
I1
sI129
I13
sI130
I1
sI131
I0
sI132
I14
sI133
I0
sI134
I7
sI135
I16
sI136
I5
sI137
I1
sI138
I10
sI139
I17
sI140
I14
sI141
I0
sI142
I13
sI143
I18
sI144
I13
sI145
I14
sI146
I1
sI147
I11
sI148
I16
sI149
I11
sI150
I17
sI151
I10
sI152
I17
sI153
I5
sI154
I4
sI155
I15
sI156
I18
sI157
I15
sI158
I3
sI159
I18
sI160
I17
sI161
I15
sI162
I5
sI163
I18
sI164
I16
sI165
I0
sI166
I3
sI167
I5
sI168
I16
sI169
I17
sI170
I17
sI171
I4
sI172
I18
sI173
I4
sI174
I5
sI175
I17
sI176
I17
sI177
I10
sI178
I10
sI179
I10
sI180
I16
sI181
I16
sI182
I10
sI183
I10
sI184
I4
sI185
I17
sI186
I10
sI187
I16
sI188
I18
sI189
I16
sI190
I15
sI191
I18
sI192
I18
sI193
I18
sI194
I15
sI195
I5
sI196
I17
sI197
I15
sI198
I15
sI199
I15
sI200
I15
sa(dp2
I0
I0
sI1
I1
sI2
I2
sI3
I0
sI4
I0
sI5
I1
sI6
I3
sI7
I4
sI8
I5
sI9
I2
sI10
I0
sI11
I6
sI12
I7
sI13
I8
sI14
I9
sI15
I10
sI16
I9
sI17
I8
sI18
I9
sa.