(lp0
ccopy_reg
_reconstructor
p1
(cnetworkx.classes.graph
Graph
p2
c__builtin__
object
p3
Ntp4
Rp5
(dp6
S'node'
p7
(dp8
I1
(dp9
sI2
(dp10
sI3
(dp11
sI4
(dp12
sI5
(dp13
sI6
(dp14
sI7
(dp15
sI8
(dp16
sI9
(dp17
sI10
(dp18
sI11
(dp19
sI12
(dp20
sI13
(dp21
sI14
(dp22
sI15
(dp23
sI16
(dp24
sI17
(dp25
sI18
(dp26
sI19
(dp27
sI20
(dp28
sI21
(dp29
sI22
(dp30
sI23
(dp31
sI24
(dp32
sI25
(dp33
sI26
(dp34
sI27
(dp35
sI28
(dp36
sI29
(dp37
sI30
(dp38
sI31
(dp39
sI32
(dp40
sI33
(dp41
sI34
(dp42
sI35
(dp43
sI36
(dp44
sI37
(dp45
sI38
(dp46
sI39
(dp47
sI40
(dp48
sI41
(dp49
sI42
(dp50
sI43
(dp51
sI44
(dp52
sI45
(dp53
sI46
(dp54
sI47
(dp55
sI48
(dp56
sI49
(dp57
sI50
(dp58
sI51
(dp59
sI52
(dp60
sI53
(dp61
sI54
(dp62
sI55
(dp63
sI56
(dp64
sI57
(dp65
sI58
(dp66
sI59
(dp67
sI60
(dp68
sI61
(dp69
sI62
(dp70
sI63
(dp71
sI64
(dp72
sI65
(dp73
sI66
(dp74
sI67
(dp75
sI68
(dp76
sI69
(dp77
sI70
(dp78
sI71
(dp79
sI72
(dp80
sI73
(dp81
sI74
(dp82
sI75
(dp83
sI76
(dp84
sI77
(dp85
sI78
(dp86
sI79
(dp87
sI80
(dp88
sI81
(dp89
sI82
(dp90
sI83
(dp91
sI84
(dp92
sI85
(dp93
sI86
(dp94
sI87
(dp95
sI88
(dp96
sI89
(dp97
sI90
(dp98
sI91
(dp99
sI92
(dp100
sI93
(dp101
sI94
(dp102
sI95
(dp103
sI96
(dp104
sI97
(dp105
sI98
(dp106
sI99
(dp107
sI100
(dp108
sI101
(dp109
sI102
(dp110
sI103
(dp111
sI104
(dp112
sI105
(dp113
sI106
(dp114
sI107
(dp115
sI108
(dp116
sI109
(dp117
sI110
(dp118
sI111
(dp119
sI112
(dp120
sI113
(dp121
sI114
(dp122
sI115
(dp123
sI116
(dp124
sI117
(dp125
sI118
(dp126
sI119
(dp127
sI120
(dp128
sI121
(dp129
sI122
(dp130
sI123
(dp131
sI124
(dp132
sI125
(dp133
sI126
(dp134
sI127
(dp135
sI128
(dp136
sI129
(dp137
sI130
(dp138
sI131
(dp139
sI132
(dp140
sI133
(dp141
sI134
(dp142
sI135
(dp143
sI136
(dp144
sI137
(dp145
sI138
(dp146
sI139
(dp147
sI140
(dp148
sI141
(dp149
sI142
(dp150
sI143
(dp151
sI144
(dp152
sI145
(dp153
sI146
(dp154
sI147
(dp155
sI148
(dp156
sI149
(dp157
sI150
(dp158
sI151
(dp159
sI152
(dp160
sI153
(dp161
sI154
(dp162
sI155
(dp163
sI156
(dp164
sI157
(dp165
sI158
(dp166
sI159
(dp167
sI160
(dp168
sI161
(dp169
sI162
(dp170
sI163
(dp171
sI164
(dp172
sI165
(dp173
sI166
(dp174
sI167
(dp175
sI168
(dp176
sI169
(dp177
sI170
(dp178
sI171
(dp179
sI172
(dp180
sI173
(dp181
sI174
(dp182
sI175
(dp183
sI176
(dp184
sI177
(dp185
sI178
(dp186
sI179
(dp187
sI180
(dp188
sI181
(dp189
sI182
(dp190
sI183
(dp191
sI184
(dp192
sI185
(dp193
sI186
(dp194
sI187
(dp195
sI188
(dp196
sI189
(dp197
sI190
(dp198
sI191
(dp199
sI192
(dp200
sI193
(dp201
sI194
(dp202
sI195
(dp203
sI196
(dp204
sI197
(dp205
sI198
(dp206
sI199
(dp207
sI200
(dp208
ssS'node_dict_factory'
p209
c__builtin__
dict
p210
sS'edge_attr_dict_factory'
p211
g210
sS'edge'
p212
(dp213
I1
(dp214
I134
(dp215
sI105
(dp216
sI42
(dp217
sI44
(dp218
sI18
(dp219
sI180
(dp220
sI29
(dp221
ssI2
(dp222
I8
(dp223
sI32
(dp224
sI45
(dp225
sI23
(dp226
ssI3
(dp227
I9
(dp228
sI47
(dp229
sI22
(dp230
sI49
(dp231
ssI4
(dp232
I37
(dp233
sI166
(dp234
sI135
(dp235
sI28
(dp236
sI108
(dp237
sI13
(dp238
sI46
(dp239
sI188
(dp240
ssI5
(dp241
I82
(dp242
sI78
(dp243
sI86
(dp244
sI79
(dp245
ssI6
(dp246
I34
(dp247
sI132
(dp248
sI66
(dp249
sI175
(dp250
sI145
(dp251
sI173
(dp252
sI26
(dp253
sI58
(dp254
sI191
(dp255
ssI7
(dp256
I65
(dp257
sI41
(dp258
sI127
(dp259
sI116
(dp260
sI24
(dp261
sI155
(dp262
sI31
(dp263
ssI8
(dp264
I40
(dp265
sI81
(dp266
sI2
g223
sI45
(dp267
ssI9
(dp268
I49
(dp269
sI3
g228
sI22
(dp270
sI47
(dp271
ssI10
(dp272
I97
(dp273
sI98
(dp274
sI100
(dp275
sI111
(dp276
sI94
(dp277
sI183
(dp278
sI158
(dp279
ssI11
(dp280
I160
(dp281
sI193
(dp282
sI134
(dp283
sI71
(dp284
sI73
(dp285
sI173
(dp286
sI16
(dp287
sI84
(dp288
ssI12
(dp289
I71
(dp290
sI200
(dp291
sI73
(dp292
sI108
(dp293
sI175
(dp294
sI140
(dp295
sI84
(dp296
sI54
(dp297
sI185
(dp298
sI187
(dp299
ssI13
(dp300
I132
(dp301
sI37
(dp302
sI106
(dp303
sI46
(dp304
sI4
g238
sI30
(dp305
ssI14
(dp306
I74
(dp307
sI67
(dp308
sI53
(dp309
sI95
(dp310
ssI15
(dp311
I193
(dp312
sI194
(dp313
sI66
(dp314
sI102
(dp315
sI139
(dp316
sI34
(dp317
sI143
(dp318
sI179
(dp319
sI26
(dp320
sI58
(dp321
ssI16
(dp322
I54
(dp323
sI71
(dp324
sI11
g287
sI140
(dp325
sI84
(dp326
sI150
(dp327
ssI17
(dp328
I47
(dp329
sI80
(dp330
sI150
(dp331
sI87
(dp332
sI89
(dp333
sI111
(dp334
ssI18
(dp335
I1
g219
sI135
(dp336
sI42
(dp337
sI44
(dp338
sI29
(dp339
sI117
(dp340
sI182
(dp341
sI188
(dp342
sI106
(dp343
sI126
(dp344
sI127
(dp345
ssI19
(dp346
I25
(dp347
sI67
(dp348
sI62
(dp349
sI95
(dp350
ssI20
(dp351
I33
(dp352
sI65
(dp353
sI41
(dp354
sI199
(dp355
sI24
(dp356
sI188
(dp357
sI157
(dp358
sI158
(dp359
ssI21
(dp360
I166
(dp361
sI71
(dp362
sI73
(dp363
sI170
(dp364
sI84
(dp365
sI54
(dp366
sI191
(dp367
ssI22
(dp368
I9
g270
sI3
g230
sI47
(dp369
sI49
(dp370
ssI23
(dp371
I32
(dp372
sI40
(dp373
sI2
g226
sI45
(dp374
ssI24
(dp375
I33
(dp376
sI132
(dp377
sI198
(dp378
sI65
(dp379
sI200
(dp380
sI7
g261
sI20
g356
sI151
(dp381
sI184
(dp382
ssI25
(dp383
I67
(dp384
sI19
g347
sI74
(dp385
sI95
(dp386
ssI26
(dp387
I192
(dp388
sI66
(dp389
sI163
(dp390
sI102
(dp391
sI6
g253
sI200
(dp392
sI15
g320
sI151
(dp393
sI58
(dp394
sI126
(dp395
ssI27
(dp396
I194
(dp397
sI99
(dp398
sI100
(dp399
sI98
(dp400
sI177
(dp401
sI90
(dp402
sI127
(dp403
ssI28
(dp404
I4
g236
sI37
(dp405
sI102
(dp406
sI46
(dp407
sI134
(dp408
sI154
(dp409
sI30
(dp410
ssI29
(dp411
I1
g221
sI134
(dp412
sI102
(dp413
sI168
(dp414
sI140
(dp415
sI42
(dp416
sI44
(dp417
sI18
g339
sI150
(dp418
sI121
(dp419
sI187
(dp420
sI188
(dp421
sI106
(dp422
ssI30
(dp423
I37
(dp424
sI135
(dp425
sI139
(dp426
sI108
(dp427
sI13
g305
sI46
(dp428
sI111
(dp429
sI110
(dp430
sI28
g410
sI158
(dp431
ssI31
(dp432
I65
(dp433
sI7
g263
sI41
(dp434
sI112
(dp435
sI156
(dp436
sI190
(dp437
ssI32
(dp438
I40
(dp439
sI2
g224
sI45
(dp440
sI23
g372
ssI33
(dp441
I161
(dp442
sI65
(dp443
sI41
(dp444
sI176
(dp445
sI20
g352
sI182
(dp446
sI151
(dp447
sI24
g376
sI169
(dp448
ssI34
(dp449
I66
(dp450
sI179
(dp451
sI6
g247
sI15
g317
sI176
(dp452
sI178
(dp453
sI83
(dp454
sI117
(dp455
sI58
(dp456
sI123
(dp457
sI156
(dp458
sI154
(dp459
ssI35
(dp460
I64
(dp461
sI68
(dp462
sI81
(dp463
sI87
(dp464
sI89
(dp465
sI154
(dp466
sI157
(dp467
sI191
(dp468
ssI36
(dp469
I74
(dp470
sI67
(dp471
sI53
(dp472
sI62
(dp473
sI95
(dp474
ssI37
(dp475
I196
(dp476
sI102
(dp477
sI188
(dp478
sI139
(dp479
sI13
g302
sI46
(dp480
sI177
(dp481
sI126
(dp482
sI4
g233
sI28
g405
sI30
g424
sI127
(dp483
ssI38
(dp484
I82
(dp485
sI83
(dp486
sI77
(dp487
sI86
(dp488
sI79
(dp489
ssI39
(dp490
I96
(dp491
sI52
(dp492
sI76
(dp493
sI69
(dp494
sI85
(dp495
ssI40
(dp496
I8
g265
sI32
g439
sI45
(dp497
sI93
(dp498
sI23
g373
ssI41
(dp499
I33
g444
sI115
(dp500
sI197
(dp501
sI65
(dp502
sI7
g258
sI108
(dp503
sI179
(dp504
sI20
g354
sI185
(dp505
sI154
(dp506
sI31
g434
ssI42
(dp507
I1
g217
sI196
(dp508
sI140
(dp509
sI44
(dp510
sI145
(dp511
sI18
g337
sI148
(dp512
sI181
(dp513
sI151
(dp514
sI100
(dp515
sI29
g416
sI191
(dp516
ssI43
(dp517
I108
(dp518
sI88
(dp519
sI56
(dp520
sI91
(dp521
sI92
(dp522
sI93
(dp523
ssI44
(dp524
I192
(dp525
sI1
g218
sI164
(dp526
sI70
(dp527
sI42
g510
sI189
(dp528
sI112
(dp529
sI18
g338
sI152
(dp530
sI29
g417
ssI45
(dp531
I8
g267
sI32
g440
sI2
g225
sI40
g497
sI23
g374
ssI46
(dp532
I4
g239
sI37
g480
sI172
(dp533
sI13
g304
sI112
(dp534
sI115
(dp535
sI186
(dp536
sI28
g407
sI30
g428
ssI47
(dp537
I9
g271
sI3
g229
sI49
(dp538
sI22
g369
sI17
g329
ssI48
(dp539
I68
(dp540
sI134
(dp541
sI199
(dp542
sI108
(dp543
sI173
(dp544
sI80
(dp545
sI81
(dp546
sI87
(dp547
sI89
(dp548
ssI49
(dp549
I9
g269
sI58
(dp550
sI3
g231
sI22
g370
sI47
g538
ssI50
(dp551
I96
(dp552
sI75
(dp553
sI76
(dp554
sI85
(dp555
sI70
(dp556
ssI51
(dp557
I73
(dp558
sI82
(dp559
sI83
(dp560
sI78
(dp561
sI86
(dp562
ssI52
(dp563
I96
(dp564
sI69
(dp565
sI70
(dp566
sI39
g492
sI75
(dp567
sI85
(dp568
ssI53
(dp569
I36
g472
sI74
(dp570
sI14
g309
sI63
(dp571
sI62
(dp572
sI95
(dp573
ssI54
(dp574
I176
(dp575
sI163
(dp576
sI71
(dp577
sI73
(dp578
sI151
(dp579
sI12
g297
sI16
g323
sI84
(dp580
sI21
g366
sI169
(dp581
sI180
(dp582
ssI55
(dp583
I97
(dp584
sI98
(dp585
sI99
(dp586
sI100
(dp587
sI168
(dp588
sI138
(dp589
sI112
(dp590
sI90
(dp591
sI154
(dp592
sI94
(dp593
ssI56
(dp594
I72
(dp595
sI43
g520
sI145
(dp596
sI178
(dp597
sI150
(dp598
sI88
(dp599
sI91
(dp600
sI92
(dp601
sI93
(dp602
sI158
(dp603
sI127
(dp604
ssI57
(dp605
I97
(dp606
sI98
(dp607
sI99
(dp608
sI100
(dp609
sI199
(dp610
sI105
(dp611
sI106
(dp612
sI172
(dp613
sI140
(dp614
sI196
(dp615
sI90
(dp616
sI189
(dp617
sI94
(dp618
ssI58
(dp619
I66
(dp620
sI6
g254
sI34
g456
sI15
g321
sI49
g550
sI115
(dp621
sI173
(dp622
sI26
g394
sI188
(dp623
sI189
(dp624
sI159
(dp625
ssI59
(dp626
I72
(dp627
sI108
(dp628
sI200
(dp629
sI88
(dp630
sI91
(dp631
sI92
(dp632
sI93
(dp633
sI63
(dp634
ssI60
(dp635
I96
(dp636
sI69
(dp637
sI70
(dp638
sI75
(dp639
sI76
(dp640
sI85
(dp641
ssI61
(dp642
I97
(dp643
sI98
(dp644
sI99
(dp645
sI100
(dp646
sI151
(dp647
sI90
(dp648
sI94
(dp649
ssI62
(dp650
I67
(dp651
sI36
g473
sI74
(dp652
sI19
g349
sI53
g572
sI95
(dp653
ssI63
(dp654
I193
(dp655
sI59
g634
sI138
(dp656
sI123
(dp657
sI180
(dp658
sI53
g571
sI170
(dp659
sI88
(dp660
sI91
(dp661
sI92
(dp662
sI93
(dp663
sI181
(dp664
ssI64
(dp665
I112
(dp666
sI35
g461
sI68
(dp667
sI166
(dp668
sI80
(dp669
sI81
(dp670
sI87
(dp671
sI89
(dp672
ssI65
(dp673
I33
g443
sI194
(dp674
sI7
g257
sI41
g502
sI110
(dp675
sI20
g353
sI24
g379
sI180
(dp676
sI31
g433
ssI66
(dp677
I34
g450
sI6
g249
sI199
(dp678
sI172
(dp679
sI77
(dp680
sI15
g314
sI173
(dp681
sI152
(dp682
sI26
g389
sI58
g620
ssI67
(dp683
I36
g471
sI74
(dp684
sI14
g308
sI19
g348
sI25
g384
sI62
g651
sI95
(dp685
ssI68
(dp686
I64
g667
sI80
(dp687
sI35
g462
sI166
(dp688
sI48
g540
sI81
(dp689
sI121
(dp690
sI87
(dp691
sI89
(dp692
sI123
(dp693
sI185
(dp694
ssI69
(dp695
I96
(dp696
sI70
(dp697
sI39
g494
sI75
(dp698
sI52
g565
sI85
(dp699
sI60
g637
ssI70
(dp700
I96
(dp701
sI69
g697
sI76
(dp702
sI44
g527
sI50
g556
sI52
g566
sI60
g638
ssI71
(dp703
I196
(dp704
sI73
(dp705
sI11
g284
sI12
g290
sI16
g324
sI84
(dp706
sI21
g362
sI54
g577
sI105
(dp707
ssI72
(dp708
I59
g627
sI199
(dp709
sI168
(dp710
sI140
(dp711
sI88
(dp712
sI182
(dp713
sI87
(dp714
sI56
g595
sI91
(dp715
sI92
(dp716
sI93
(dp717
sI158
(dp718
ssI73
(dp719
I163
(dp720
sI71
g705
sI138
(dp721
sI11
g285
sI12
g292
sI51
g558
sI84
(dp722
sI21
g363
sI54
g578
sI152
(dp723
sI116
(dp724
sI156
(dp725
ssI74
(dp726
I67
g684
sI36
g470
sI14
g307
sI53
g570
sI25
g385
sI62
g652
sI95
(dp727
ssI75
(dp728
I96
(dp729
sI69
g698
sI76
(dp730
sI50
g553
sI52
g567
sI85
(dp731
sI60
g639
ssI76
(dp732
I96
(dp733
sI70
g702
sI39
g493
sI75
g730
sI50
g554
sI85
(dp734
sI60
g640
ssI77
(dp735
I66
g680
sI38
g487
sI78
(dp736
sI79
(dp737
sI82
(dp738
sI83
(dp739
sI86
(dp740
ssI78
(dp741
I51
g561
sI5
g243
sI77
g736
sI79
(dp742
sI82
(dp743
sI83
(dp744
sI86
(dp745
ssI79
(dp746
I5
g245
sI38
g489
sI77
g737
sI78
g742
sI82
(dp747
sI83
(dp748
sI86
(dp749
ssI80
(dp750
I64
g669
sI112
(dp751
sI164
(dp752
sI68
g687
sI81
(dp753
sI48
g545
sI17
g330
sI87
(dp754
sI88
(dp755
sI89
(dp756
sI123
(dp757
sI126
(dp758
ssI81
(dp759
I64
g670
sI80
g753
sI35
g463
sI68
g689
sI8
g266
sI48
g546
sI164
(dp760
sI116
(dp761
sI87
(dp762
sI89
(dp763
ssI82
(dp764
I83
(dp765
sI5
g242
sI38
g485
sI77
g738
sI78
g743
sI79
g747
sI51
g559
sI86
(dp766
ssI83
(dp767
I34
g454
sI38
g486
sI77
g739
sI78
g744
sI79
g748
sI82
g765
sI51
g560
sI86
(dp768
ssI84
(dp769
I139
(dp770
sI71
g706
sI73
g722
sI11
g288
sI12
g296
sI16
g326
sI115
(dp771
sI21
g365
sI54
g580
sI121
(dp772
sI92
(dp773
ssI85
(dp774
I96
(dp775
sI69
g699
sI39
g495
sI75
g731
sI76
g734
sI50
g555
sI52
g568
sI60
g641
ssI86
(dp776
I83
g768
sI5
g244
sI38
g488
sI77
g740
sI78
g745
sI79
g749
sI82
g766
sI51
g562
sI89
(dp777
ssI87
(dp778
I64
g671
sI80
g754
sI35
g464
sI68
g691
sI81
g762
sI72
g714
sI171
(dp779
sI48
g547
sI17
g332
sI89
(dp780
sI123
(dp781
sI157
(dp782
sI159
(dp783
ssI88
(dp784
I91
(dp785
sI132
(dp786
sI72
g712
sI105
(dp787
sI43
g519
sI80
g755
sI56
g599
sI59
g630
sI92
(dp788
sI93
(dp789
sI63
g660
ssI89
(dp790
I64
g672
sI80
g756
sI35
g465
sI68
g692
sI81
g763
sI48
g548
sI17
g333
sI117
(dp791
sI86
g777
sI87
g780
sI184
(dp792
sI186
(dp793
ssI90
(dp794
I97
(dp795
sI98
(dp796
sI99
(dp797
sI100
(dp798
sI197
(dp799
sI164
(dp800
sI177
(dp801
sI158
(dp802
sI55
g591
sI152
(dp803
sI57
g616
sI27
g402
sI61
g648
sI94
(dp804
ssI91
(dp805
I97
(dp806
sI123
(dp807
sI179
(dp808
sI177
(dp809
sI72
g715
sI43
g521
sI88
g785
sI115
(dp810
sI56
g600
sI154
(dp811
sI59
g631
sI92
(dp812
sI93
(dp813
sI63
g661
ssI92
(dp814
I91
g812
sI102
(dp815
sI72
g716
sI43
g522
sI88
g788
sI84
g773
sI171
(dp816
sI56
g601
sI59
g632
sI93
(dp817
sI63
g662
ssI93
(dp818
I91
g813
sI145
(dp819
sI40
g498
sI43
g523
sI159
(dp820
sI72
g717
sI56
g602
sI88
g789
sI59
g633
sI92
g817
sI63
g663
ssI94
(dp821
I192
(dp822
sI97
(dp823
sI98
(dp824
sI99
(dp825
sI100
(dp826
sI102
(dp827
sI10
g277
sI171
(dp828
sI111
(dp829
sI112
(dp830
sI178
(dp831
sI55
g593
sI57
g618
sI90
g804
sI61
g649
ssI95
(dp832
I67
g685
sI36
g474
sI74
g727
sI14
g310
sI99
(dp833
sI19
g350
sI53
g573
sI25
g386
sI62
g653
ssI96
(dp834
I69
g696
sI70
g701
sI39
g491
sI75
g729
sI76
g733
sI50
g552
sI52
g564
sI85
g775
sI60
g636
ssI97
(dp835
I98
(dp836
sI99
(dp837
sI100
(dp838
sI199
(dp839
sI10
g273
sI164
(dp840
sI179
(dp841
sI55
g584
sI57
g606
sI90
g795
sI91
g806
sI61
g643
sI94
g823
ssI98
(dp842
I97
g836
sI132
(dp843
sI99
(dp844
sI100
(dp845
sI10
g274
sI139
(dp846
sI186
(dp847
sI55
g585
sI57
g607
sI90
g796
sI27
g400
sI61
g644
sI94
g824
ssI99
(dp848
I97
g837
sI98
g844
sI100
(dp849
sI151
(dp850
sI55
g586
sI57
g608
sI90
g797
sI27
g398
sI61
g645
sI94
g825
sI95
g833
ssI100
(dp851
I97
g838
sI98
g845
sI99
g849
sI164
(dp852
sI10
g275
sI115
(dp853
sI42
g515
sI187
(dp854
sI182
(dp855
sI55
g587
sI57
g609
sI90
g798
sI27
g399
sI61
g646
sI94
g826
ssI101
(dp856
I144
(dp857
sI129
(dp858
sI118
(dp859
sI142
(dp860
ssI102
(dp861
I132
(dp862
sI37
g477
sI92
g815
sI108
(dp863
sI15
g315
sI145
(dp864
sI26
g391
sI123
(dp865
sI28
g406
sI29
g413
sI94
g827
ssI103
(dp866
I122
(dp867
sI147
(dp868
sI109
(dp869
sI149
(dp870
ssI104
(dp871
I128
(dp872
sI113
(dp873
sI146
(dp874
sI137
(dp875
ssI105
(dp876
I1
g216
sI71
g707
sI178
(dp877
sI179
(dp878
sI182
(dp879
sI88
g787
sI57
g611
sI186
(dp880
ssI106
(dp881
I166
(dp882
sI134
(dp883
sI13
g303
sI18
g343
sI158
(dp884
sI57
g612
sI29
g422
sI126
(dp885
ssI107
(dp886
I131
(dp887
sI124
(dp888
sI141
(dp889
sI165
(dp890
ssI108
(dp891
I4
g237
sI102
g863
sI140
(dp892
sI43
g518
sI12
g293
sI48
g543
sI145
(dp893
sI181
(dp894
sI41
g503
sI59
g628
sI30
g427
ssI109
(dp895
I122
(dp896
sI147
(dp897
sI149
(dp898
sI103
g869
ssI110
(dp899
I65
g675
sI194
(dp900
sI197
(dp901
sI198
(dp902
sI200
(dp903
sI30
g430
ssI111
(dp904
I10
g276
sI171
(dp905
sI173
(dp906
sI17
g334
sI116
(dp907
sI94
g829
sI184
(dp908
sI30
g429
ssI112
(dp909
I64
g666
sI171
(dp910
sI44
g529
sI173
(dp911
sI46
g534
sI80
g751
sI55
g590
sI184
(dp912
sI154
(dp913
sI94
g830
sI31
g435
ssI113
(dp914
I104
g873
sI137
(dp915
sI130
(dp916
sI146
(dp917
ssI114
(dp918
I153
(dp919
sI195
(dp920
sI174
(dp921
sI167
(dp922
ssI115
(dp923
I100
g853
sI166
(dp924
sI134
(dp925
sI41
g500
sI46
g535
sI84
g771
sI158
(dp926
sI58
g621
sI91
g810
sI126
(dp927
ssI116
(dp928
I7
g260
sI73
g724
sI171
(dp929
sI111
g907
sI81
g761
sI184
(dp930
sI154
(dp931
ssI117
(dp932
I34
g455
sI18
g340
sI147
(dp933
sI180
(dp934
sI89
g791
sI187
(dp935
sI189
(dp936
ssI118
(dp937
I144
(dp938
sI129
(dp939
sI101
g859
sI142
(dp940
ssI119
(dp941
I162
(dp942
sI195
(dp943
sI125
(dp944
sI167
(dp945
ssI120
(dp946
I141
(dp947
sI124
(dp948
sI165
(dp949
sI133
(dp950
ssI121
(dp951
I68
g690
sI171
(dp952
sI173
(dp953
sI84
g772
sI184
(dp954
sI154
(dp955
sI29
g419
ssI122
(dp956
I149
(dp957
sI147
(dp958
sI109
g896
sI103
g867
ssI123
(dp959
I34
g457
sI132
(dp960
sI102
g865
sI140
(dp961
sI80
g757
sI145
(dp962
sI87
g781
sI68
g693
sI91
g807
sI63
g657
ssI124
(dp963
I120
g948
sI107
g888
sI133
(dp964
sI165
(dp965
ssI125
(dp966
I167
(dp967
sI174
(dp968
sI195
(dp969
sI119
g944
ssI126
(dp970
I37
g482
sI166
(dp971
sI106
g885
sI80
g758
sI18
g344
sI115
g927
sI26
g395
sI158
(dp972
ssI127
(dp973
I37
g483
sI198
(dp974
sI7
g259
sI200
(dp975
sI199
(dp976
sI18
g345
sI56
g604
sI27
g403
sI190
(dp977
ssI128
(dp978
I104
g872
sI137
(dp979
sI130
(dp980
sI146
(dp981
ssI129
(dp982
I144
(dp983
sI101
g858
sI118
g939
sI142
(dp984
ssI130
(dp985
I128
g980
sI113
g916
sI146
(dp986
sI137
(dp987
ssI131
(dp988
I107
g887
sI141
(dp989
sI165
(dp990
ssI132
(dp991
I98
g843
sI102
g862
sI6
g248
sI140
(dp992
sI13
g301
sI145
(dp993
sI24
g377
sI88
g786
sI123
g960
ssI133
(dp994
I120
g950
sI124
g964
sI141
(dp995
sI165
(dp996
ssI134
(dp997
I1
g215
sI166
(dp998
sI106
g883
sI11
g283
sI48
g541
sI115
g925
sI183
(dp999
sI28
g408
sI29
g412
sI158
(dp1000
ssI135
(dp1001
I4
g235
sI168
(dp1002
sI18
g336
sI181
(dp1003
sI164
(dp1004
sI187
(dp1005
sI189
(dp1006
sI30
g425
ssI136
(dp1007
I153
(dp1008
sI162
(dp1009
sI195
(dp1010
sI174
(dp1011
sI167
(dp1012
ssI137
(dp1013
I104
g875
sI113
g915
sI128
g979
sI130
g987
sI146
(dp1014
ssI138
(dp1015
I73
g721
sI183
(dp1016
sI177
(dp1017
sI179
(dp1018
sI182
(dp1019
sI55
g589
sI186
(dp1020
sI63
g656
ssI139
(dp1021
I98
g846
sI196
(dp1022
sI37
g479
sI169
(dp1023
sI15
g316
sI176
(dp1024
sI84
g770
sI152
(dp1025
sI185
(dp1026
sI30
g426
ssI140
(dp1027
I193
(dp1028
sI132
g992
sI72
g711
sI12
g295
sI42
g509
sI108
g892
sI16
g325
sI145
(dp1029
sI57
g614
sI123
g961
sI29
g415
ssI141
(dp1030
I120
g947
sI107
g889
sI131
g989
sI133
g995
sI165
(dp1031
ssI142
(dp1032
I144
(dp1033
sI129
g984
sI200
(dp1034
sI101
g860
sI118
g940
ssI143
(dp1035
I192
(dp1036
sI193
(dp1037
sI188
(dp1038
sI15
g318
sI156
(dp1039
sI191
(dp1040
ssI144
(dp1041
I129
g983
sI170
(dp1042
sI101
g857
sI118
g938
sI142
g1033
ssI145
(dp1043
I132
g993
sI102
g864
sI6
g251
sI108
g893
sI42
g511
sI140
g1029
sI56
g596
sI123
g962
sI93
g819
ssI146
(dp1044
I104
g874
sI113
g917
sI128
g981
sI130
g986
sI137
g1014
ssI147
(dp1045
I149
(dp1046
sI122
g958
sI117
g933
sI109
g897
sI103
g868
ssI148
(dp1047
I168
(dp1048
sI42
g512
sI180
(dp1049
sI181
(dp1050
sI187
(dp1051
sI189
(dp1052
ssI149
(dp1053
I122
g957
sI147
g1046
sI109
g898
sI158
(dp1054
sI103
g870
ssI150
(dp1055
I16
g327
sI196
(dp1056
sI170
(dp1057
sI175
(dp1058
sI176
(dp1059
sI17
g331
sI56
g598
sI185
(dp1060
sI29
g418
ssI151
(dp1061
I33
g447
sI99
g850
sI54
g579
sI42
g514
sI173
(dp1062
sI61
g647
sI178
(dp1063
sI182
(dp1064
sI183
(dp1065
sI24
g381
sI186
(dp1066
sI26
g393
ssI152
(dp1067
I66
g682
sI196
(dp1068
sI169
(dp1069
sI170
(dp1070
sI139
g1025
sI44
g530
sI175
(dp1071
sI73
g723
sI185
(dp1072
sI90
g803
ssI153
(dp1073
I162
(dp1074
sI163
(dp1075
sI136
g1008
sI174
(dp1076
sI114
g919
sI195
(dp1077
ssI154
(dp1078
I34
g459
sI35
g466
sI41
g506
sI171
(dp1079
sI173
(dp1080
sI112
g913
sI116
g931
sI55
g592
sI184
(dp1081
sI121
g955
sI91
g811
sI28
g409
ssI155
(dp1082
I194
(dp1083
sI197
(dp1084
sI198
(dp1085
sI199
(dp1086
sI200
(dp1087
sI7
g262
sI190
(dp1088
ssI156
(dp1089
I192
(dp1090
sI193
(dp1091
sI34
g458
sI73
g725
sI172
(dp1092
sI143
g1039
sI31
g436
sI188
(dp1093
sI191
(dp1094
ssI157
(dp1095
I194
(dp1096
sI35
g467
sI197
(dp1097
sI198
(dp1098
sI199
(dp1099
sI200
(dp1100
sI20
g358
sI87
g782
sI190
(dp1101
ssI158
(dp1102
I30
g431
sI134
g1000
sI166
(dp1103
sI72
g718
sI106
g884
sI115
g926
sI20
g359
sI149
g1054
sI56
g603
sI90
g802
sI10
g279
sI126
g972
ssI159
(dp1104
I192
(dp1105
sI193
(dp1106
sI163
(dp1107
sI172
(dp1108
sI87
g783
sI58
g625
sI188
(dp1109
sI93
g820
sI191
(dp1110
ssI160
(dp1111
I196
(dp1112
sI169
(dp1113
sI170
(dp1114
sI11
g281
sI175
(dp1115
sI176
(dp1116
sI185
(dp1117
ssI161
(dp1118
I33
g442
sI194
(dp1119
sI197
(dp1120
sI198
(dp1121
sI199
(dp1122
sI200
(dp1123
sI190
(dp1124
ssI162
(dp1125
I195
(dp1126
sI167
(dp1127
sI136
g1009
sI174
(dp1128
sI119
g942
sI153
g1074
ssI163
(dp1129
I192
(dp1130
sI193
(dp1131
sI73
g720
sI54
g576
sI153
g1075
sI26
g390
sI159
g1107
sI188
(dp1132
sI191
(dp1133
ssI164
(dp1134
I97
g840
sI100
g852
sI135
g1004
sI168
(dp1135
sI44
g526
sI80
g752
sI81
g760
sI180
(dp1136
sI181
(dp1137
sI90
g800
sI187
(dp1138
sI189
(dp1139
ssI165
(dp1140
I131
g990
sI133
g996
sI107
g890
sI141
g1031
sI120
g949
sI124
g965
ssI166
(dp1141
I64
g668
sI4
g234
sI134
g998
sI106
g882
sI177
(dp1142
sI115
g924
sI158
g1103
sI68
g688
sI126
g971
sI21
g361
ssI167
(dp1143
I162
g1127
sI195
(dp1144
sI136
g1012
sI174
(dp1145
sI114
g922
sI119
g945
sI125
g967
ssI168
(dp1146
I164
g1135
sI135
g1002
sI72
g710
sI29
g414
sI180
(dp1147
sI181
(dp1148
sI55
g588
sI148
g1048
sI187
(dp1149
sI189
(dp1150
ssI169
(dp1151
I160
g1113
sI33
g448
sI196
(dp1152
sI170
(dp1153
sI139
g1023
sI175
(dp1154
sI54
g581
sI152
g1069
sI185
(dp1155
ssI170
(dp1156
I160
g1114
sI176
(dp1157
sI196
(dp1158
sI169
g1153
sI144
g1042
sI21
g364
sI150
g1057
sI152
g1070
sI63
g659
ssI171
(dp1159
I173
(dp1160
sI111
g905
sI112
g910
sI116
g929
sI87
g779
sI184
(dp1161
sI121
g952
sI154
g1079
sI92
g816
sI94
g828
ssI172
(dp1162
I192
(dp1163
sI193
(dp1164
sI66
g679
sI188
(dp1165
sI191
(dp1166
sI46
g533
sI57
g613
sI187
(dp1167
sI156
g1092
sI159
g1108
ssI173
(dp1168
I48
g544
sI66
g681
sI11
g286
sI6
g252
sI171
g1160
sI111
g906
sI112
g911
sI151
g1062
sI184
(dp1169
sI121
g953
sI154
g1080
sI58
g622
ssI174
(dp1170
I162
g1128
sI195
(dp1171
sI167
g1145
sI136
g1011
sI114
g921
sI153
g1076
sI125
g968
ssI175
(dp1172
I160
g1115
sI196
(dp1173
sI6
g250
sI169
g1154
sI12
g294
sI176
(dp1174
sI150
g1058
sI152
g1071
sI185
(dp1175
ssI176
(dp1176
I160
g1116
sI33
g445
sI34
g452
sI196
(dp1177
sI54
g575
sI170
g1157
sI139
g1024
sI175
g1174
sI150
g1059
sI185
(dp1178
ssI177
(dp1179
I91
g809
sI37
g481
sI166
g1142
sI138
g1017
sI178
(dp1180
sI179
(dp1181
sI182
(dp1182
sI183
(dp1183
sI186
(dp1184
sI27
g401
sI90
g801
ssI178
(dp1185
I34
g453
sI105
g877
sI151
g1063
sI177
g1180
sI179
(dp1186
sI182
(dp1187
sI183
(dp1188
sI56
g597
sI186
(dp1189
sI94
g831
ssI179
(dp1190
I97
g841
sI34
g451
sI105
g878
sI138
g1018
sI15
g319
sI177
g1181
sI178
g1186
sI41
g504
sI182
(dp1191
sI183
(dp1192
sI186
(dp1193
sI91
g808
ssI180
(dp1194
I1
g220
sI164
g1136
sI65
g676
sI168
g1147
sI63
g658
sI148
g1049
sI117
g934
sI54
g582
sI187
(dp1195
sI188
(dp1196
sI189
(dp1197
sI181
(dp1198
ssI181
(dp1199
I164
g1137
sI135
g1003
sI168
g1148
sI42
g513
sI108
g894
sI148
g1050
sI180
g1198
sI187
(dp1200
sI189
(dp1201
sI63
g664
ssI182
(dp1202
I33
g446
sI100
g855
sI72
g713
sI105
g879
sI138
g1019
sI183
(dp1203
sI18
g341
sI177
g1182
sI178
g1187
sI179
g1191
sI151
g1064
sI186
(dp1204
ssI183
(dp1205
I134
g999
sI138
g1016
sI177
g1183
sI178
g1188
sI179
g1192
sI182
g1203
sI151
g1065
sI186
(dp1206
sI10
g278
ssI184
(dp1207
I192
(dp1208
sI171
g1161
sI173
g1169
sI111
g908
sI112
g912
sI116
g930
sI89
g792
sI24
g382
sI121
g954
sI154
g1081
ssI185
(dp1209
I160
g1117
sI196
(dp1210
sI169
g1155
sI139
g1026
sI12
g298
sI175
g1175
sI176
g1178
sI150
g1060
sI41
g505
sI152
g1072
sI68
g694
ssI186
(dp1211
I98
g847
sI105
g880
sI138
g1020
sI183
g1206
sI46
g536
sI177
g1184
sI178
g1189
sI179
g1193
sI182
g1204
sI151
g1066
sI89
g793
sI189
(dp1212
ssI187
(dp1213
I100
g854
sI164
g1138
sI135
g1005
sI168
g1149
sI12
g299
sI172
g1167
sI29
g420
sI148
g1051
sI117
g935
sI180
g1195
sI189
(dp1214
sI181
g1200
ssI188
(dp1215
I192
(dp1216
sI193
(dp1217
sI163
g1132
sI4
g240
sI37
g478
sI172
g1165
sI143
g1038
sI18
g342
sI180
g1196
sI20
g357
sI58
g623
sI191
(dp1218
sI156
g1093
sI29
g421
sI159
g1109
ssI189
(dp1219
I164
g1139
sI135
g1006
sI168
g1150
sI44
g528
sI180
g1197
sI117
g936
sI57
g617
sI148
g1052
sI186
g1212
sI187
g1214
sI58
g624
sI181
g1201
ssI190
(dp1220
I161
g1124
sI194
(dp1221
sI197
(dp1222
sI198
(dp1223
sI199
(dp1224
sI200
(dp1225
sI31
g437
sI155
g1088
sI157
g1101
sI127
g977
ssI191
(dp1226
I192
(dp1227
sI193
(dp1228
sI163
g1133
sI197
(dp1229
sI6
g255
sI156
g1094
sI42
g516
sI172
g1166
sI143
g1040
sI35
g468
sI21
g367
sI188
g1218
sI159
g1110
ssI192
(dp1230
I193
(dp1231
sI163
g1130
sI188
g1216
sI172
g1163
sI143
g1036
sI184
g1208
sI26
g388
sI191
g1227
sI156
g1090
sI44
g525
sI94
g822
sI159
g1105
ssI193
(dp1232
I192
g1231
sI163
g1131
sI15
g312
sI140
g1028
sI11
g282
sI172
g1164
sI63
g655
sI143
g1037
sI188
g1217
sI191
g1228
sI156
g1091
sI159
g1106
ssI194
(dp1233
I161
g1119
sI27
g397
sI197
(dp1234
sI198
(dp1235
sI199
(dp1236
sI200
(dp1237
sI110
g900
sI15
g313
sI155
g1083
sI157
g1096
sI190
g1221
sI65
g674
ssI195
(dp1238
I162
g1126
sI167
g1144
sI136
g1010
sI199
(dp1239
sI174
g1171
sI114
g920
sI119
g943
sI153
g1077
sI125
g969
ssI196
(dp1240
I160
g1112
sI37
g476
sI71
g704
sI169
g1152
sI170
g1158
sI139
g1022
sI175
g1173
sI176
g1177
sI150
g1056
sI57
g615
sI152
g1068
sI185
g1210
sI42
g508
ssI197
(dp1241
I161
g1120
sI194
g1234
sI198
(dp1242
sI199
(dp1243
sI200
(dp1244
sI41
g501
sI110
g901
sI90
g799
sI155
g1084
sI157
g1097
sI190
g1222
sI191
g1229
ssI198
(dp1245
I161
g1121
sI194
g1235
sI197
g1242
sI199
(dp1246
sI200
(dp1247
sI110
g902
sI24
g378
sI155
g1085
sI157
g1098
sI190
g1223
sI127
g974
ssI199
(dp1248
I161
g1122
sI194
g1236
sI195
g1239
sI197
g1243
sI198
g1246
sI97
g839
sI200
(dp1249
sI66
g678
sI48
g542
sI72
g709
sI20
g355
sI57
g610
sI155
g1086
sI157
g1099
sI190
g1224
sI127
g976
ssI200
(dp1250
I161
g1123
sI194
g1237
sI59
g629
sI197
g1244
sI198
g1247
sI199
g1249
sI12
g291
sI142
g1034
sI110
g903
sI24
g380
sI26
g392
sI155
g1087
sI157
g1100
sI190
g1225
sI127
g975
sssS'graph'
p1251
(dp1252
sS'adjlist_dict_factory'
p1253
g210
sS'adj'
p1254
g213
sba(dp1255
I1
c__builtin__
set
p1256
((lp1257
I1
aI2
aI3
aI4
aI5
aI6
aI7
aI8
aI9
aI10
aI11
aI12
aI13
aI14
aI15
aI16
aI17
aI18
aI19
aI20
aI21
aI22
aI23
aI24
aI25
aI26
aI27
aI28
aI29
aI30
aI31
aI32
aI33
aI34
aI35
aI36
aI37
aI38
aI39
aI40
aI41
aI42
aI43
aI44
aI45
aI46
aI47
aI48
aI49
aI50
aI51
aI52
aI53
aI54
aI55
aI56
aI57
aI58
aI59
aI60
aI61
aI62
aI63
aI64
aI65
aI66
aI67
aI68
aI69
aI70
aI71
aI72
aI73
aI74
aI75
aI76
aI77
aI78
aI79
aI80
aI81
aI82
aI83
aI84
aI85
aI86
aI87
aI88
aI89
aI90
aI91
aI92
aI93
aI94
aI95
aI96
aI97
aI98
aI99
aI100
atp1258
Rp1259
sI2
g1256
((lp1260
I101
aI102
aI103
aI104
aI105
aI106
aI107
aI108
aI109
aI110
aI111
aI112
aI113
aI114
aI115
aI116
aI117
aI118
aI119
aI120
aI121
aI122
aI123
aI124
aI125
aI126
aI127
aI128
aI129
aI130
aI131
aI132
aI133
aI134
aI135
aI136
aI137
aI138
aI139
aI140
aI141
aI142
aI143
aI144
aI145
aI146
aI147
aI148
aI149
aI150
aI151
aI152
aI153
aI154
aI155
aI156
aI157
aI158
aI159
aI160
aI161
aI162
aI163
aI164
aI165
aI166
aI167
aI168
aI169
aI170
aI171
aI172
aI173
aI174
aI175
aI176
aI177
aI178
aI179
aI180
aI181
aI182
aI183
aI184
aI185
aI186
aI187
aI188
aI189
aI190
aI191
aI192
aI193
aI194
aI195
aI196
aI197
aI198
aI199
aI200
atp1261
Rp1262
sa(dp1263
I1
g1256
((lp1264
I18
aI42
aI44
aI29
atp1265
Rp1266
sI2
g1256
((lp1267
I8
aI32
aI45
aI23
atp1268
Rp1269
sI3
g1256
((lp1270
I9
aI49
aI22
aI47
atp1271
Rp1272
sI4
g1256
((lp1273
I28
aI13
aI46
aI37
atp1274
Rp1275
sI5
g1256
((lp1276
I82
aI86
aI78
aI79
atp1277
Rp1278
sI6
g1256
((lp1279
I26
aI58
aI66
aI34
atp1280
Rp1281
sI7
g1256
((lp1282
I24
aI41
aI65
aI31
atp1283
Rp1284
sI8
g1256
((lp1285
I40
aI81
aI2
aI45
atp1286
Rp1287
sI9
g1256
((lp1288
I49
aI3
aI22
aI47
atp1289
Rp1290
sI10
g1256
((lp1291
I97
aI98
aI100
aI94
atp1292
Rp1293
sI11
g1256
((lp1294
I16
aI73
aI84
aI71
atp1295
Rp1296
sI12
g1256
((lp1297
I73
aI84
aI54
aI71
atp1298
Rp1299
sI13
g1256
((lp1300
I46
aI4
aI37
aI30
atp1301
Rp1302
sI14
g1256
((lp1303
I74
aI67
aI53
aI95
atp1304
Rp1305
sI15
g1256
((lp1306
I26
aI58
aI66
aI34
atp1307
Rp1308
sI16
g1256
((lp1309
I11
aI84
aI54
aI71
atp1310
Rp1311
sI17
g1256
((lp1312
I80
aI89
aI87
aI47
atp1313
Rp1314
sI18
g1256
((lp1315
I1
aI42
aI44
aI29
atp1316
Rp1317
sI19
g1256
((lp1318
I25
aI67
aI62
aI95
atp1319
Rp1320
sI20
g1256
((lp1321
I24
aI33
aI65
aI41
atp1322
Rp1323
sI21
g1256
((lp1324
I73
aI84
aI54
aI71
atp1325
Rp1326
sI22
g1256
((lp1327
I9
aI3
aI49
aI47
atp1328
Rp1329
sI23
g1256
((lp1330
I32
aI40
aI2
aI45
atp1331
Rp1332
sI24
g1256
((lp1333
I33
aI20
aI65
aI7
atp1334
Rp1335
sI25
g1256
((lp1336
I67
aI19
aI74
aI95
atp1337
Rp1338
sI26
g1256
((lp1339
I58
aI66
aI6
aI15
atp1340
Rp1341
sI27
g1256
((lp1342
I90
aI99
aI100
aI98
atp1343
Rp1344
sI28
g1256
((lp1345
I46
aI4
aI37
aI30
atp1346
Rp1347
sI29
g1256
((lp1348
I1
aI18
aI44
aI42
atp1349
Rp1350
sI30
g1256
((lp1351
I28
aI13
aI46
aI37
atp1352
Rp1353
sI31
g1256
((lp1354
I41
aI65
aI7
atp1355
Rp1356
sI32
g1256
((lp1357
I40
aI2
aI45
aI23
atp1358
Rp1359
sI33
g1256
((lp1360
I24
aI41
aI20
aI65
atp1361
Rp1362
sI34
g1256
((lp1363
I58
aI83
aI66
aI6
aI15
atp1364
Rp1365
sI35
g1256
((lp1366
I64
aI81
aI68
aI89
aI87
atp1367
Rp1368
sI36
g1256
((lp1369
I74
aI67
aI53
aI62
aI95
atp1370
Rp1371
sI37
g1256
((lp1372
I28
aI46
aI4
aI13
aI30
atp1373
Rp1374
sI38
g1256
((lp1375
I82
aI83
aI77
aI86
aI79
atp1376
Rp1377
sI39
g1256
((lp1378
I96
aI76
aI52
aI69
aI85
atp1379
Rp1380
sI40
g1256
((lp1381
I8
aI32
aI45
aI93
aI23
atp1382
Rp1383
sI41
g1256
((lp1384
I33
aI31
aI20
aI65
aI7
atp1385
Rp1386
sI42
g1256
((lp1387
I1
aI18
aI44
aI29
aI100
atp1388
Rp1389
sI43
g1256
((lp1390
I56
aI88
aI91
aI92
aI93
atp1391
Rp1392
sI44
g1256
((lp1393
I1
aI18
aI42
aI29
aI70
atp1394
Rp1395
sI45
g1256
((lp1396
I8
aI32
aI2
aI40
aI23
atp1397
Rp1398
sI46
g1256
((lp1399
I28
aI4
aI13
aI30
aI37
atp1400
Rp1401
sI47
g1256
((lp1402
I9
aI3
aI49
aI22
aI17
atp1403
Rp1404
sI48
g1256
((lp1405
I80
aI81
aI68
aI89
aI87
atp1406
Rp1407
sI49
g1256
((lp1408
I9
aI58
aI3
aI22
aI47
atp1409
Rp1410
sI50
g1256
((lp1411
I96
aI75
aI76
aI85
aI70
atp1412
Rp1413
sI51
g1256
((lp1414
I73
aI82
aI83
aI86
aI78
atp1415
Rp1416
sI52
g1256
((lp1417
I96
aI69
aI70
aI39
aI75
aI85
atp1418
Rp1419
sI53
g1256
((lp1420
I36
aI74
aI14
aI63
aI62
aI95
atp1421
Rp1422
sI54
g1256
((lp1423
I71
aI73
aI12
aI16
aI84
aI21
atp1424
Rp1425
sI55
g1256
((lp1426
I97
aI98
aI99
aI100
aI90
aI94
atp1427
Rp1428
sI56
g1256
((lp1429
I72
aI43
aI88
aI91
aI92
aI93
atp1430
Rp1431
sI57
g1256
((lp1432
I97
aI98
aI99
aI100
aI90
aI94
atp1433
Rp1434
sI58
g1256
((lp1435
I66
aI6
aI34
aI15
aI49
aI26
atp1436
Rp1437
sI59
g1256
((lp1438
I72
aI88
aI91
aI92
aI93
aI63
atp1439
Rp1440
sI60
g1256
((lp1441
I96
aI69
aI70
aI75
aI76
aI85
atp1442
Rp1443
sI61
g1256
((lp1444
I97
aI98
aI99
aI100
aI90
aI94
atp1445
Rp1446
sI62
g1256
((lp1447
I67
aI36
aI74
aI19
aI53
aI95
atp1448
Rp1449
sI63
g1256
((lp1450
I59
aI53
aI88
aI91
aI92
aI93
atp1451
Rp1452
sI64
g1256
((lp1453
I35
aI68
aI80
aI81
aI87
aI89
atp1454
Rp1455
sI65
g1256
((lp1456
I33
aI7
aI41
aI20
aI24
aI31
atp1457
Rp1458
sI66
g1256
((lp1459
I34
aI6
aI77
aI15
aI26
aI58
atp1460
Rp1461
sI67
g1256
((lp1462
I36
aI74
aI14
aI19
aI25
aI62
aI95
atp1463
Rp1464
sI68
g1256
((lp1465
I64
aI80
aI35
aI48
aI81
aI87
aI89
atp1466
Rp1467
sI69
g1256
((lp1468
I96
aI70
aI39
aI75
aI52
aI85
aI60
atp1469
Rp1470
sI70
g1256
((lp1471
I96
aI69
aI44
aI76
aI50
aI52
aI60
atp1472
Rp1473
sI71
g1256
((lp1474
I73
aI11
aI12
aI16
aI84
aI21
aI54
atp1475
Rp1476
sI72
g1256
((lp1477
I59
aI88
aI87
aI56
aI91
aI92
aI93
atp1478
Rp1479
sI73
g1256
((lp1480
I71
aI11
aI12
aI51
aI84
aI21
aI54
atp1481
Rp1482
sI74
g1256
((lp1483
I67
aI36
aI14
aI53
aI25
aI62
aI95
atp1484
Rp1485
sI75
g1256
((lp1486
I96
aI69
aI76
aI50
aI52
aI85
aI60
atp1487
Rp1488
sI76
g1256
((lp1489
I96
aI70
aI39
aI75
aI50
aI85
aI60
atp1490
Rp1491
sI77
g1256
((lp1492
I66
aI38
aI78
aI79
aI82
aI83
aI86
atp1493
Rp1494
sI78
g1256
((lp1495
I51
aI5
aI77
aI79
aI82
aI83
aI86
atp1496
Rp1497
sI79
g1256
((lp1498
I5
aI38
aI77
aI78
aI82
aI83
aI86
atp1499
Rp1500
sI80
g1256
((lp1501
I64
aI68
aI81
aI48
aI17
aI87
aI88
aI89
atp1502
Rp1503
sI81
g1256
((lp1504
I64
aI80
aI35
aI68
aI8
aI48
aI87
aI89
atp1505
Rp1506
sI82
g1256
((lp1507
I83
aI5
aI38
aI77
aI78
aI79
aI51
aI86
atp1508
Rp1509
sI83
g1256
((lp1510
I34
aI38
aI77
aI78
aI79
aI82
aI51
aI86
atp1511
Rp1512
sI84
g1256
((lp1513
I71
aI73
aI11
aI12
aI16
aI21
aI54
aI92
atp1514
Rp1515
sI85
g1256
((lp1516
I96
aI69
aI39
aI75
aI76
aI50
aI52
aI60
atp1517
Rp1518
sI86
g1256
((lp1519
I83
aI5
aI38
aI77
aI78
aI79
aI82
aI51
aI89
atp1520
Rp1521
sI87
g1256
((lp1522
I64
aI80
aI35
aI68
aI81
aI72
aI48
aI17
aI89
atp1523
Rp1524
sI88
g1256
((lp1525
I91
aI72
aI43
aI80
aI56
aI59
aI92
aI93
aI63
atp1526
Rp1527
sI89
g1256
((lp1528
I64
aI80
aI35
aI68
aI81
aI48
aI17
aI86
aI87
atp1529
Rp1530
sI90
g1256
((lp1531
I97
aI98
aI99
aI100
aI55
aI57
aI27
aI61
aI94
atp1532
Rp1533
sI91
g1256
((lp1534
I97
aI72
aI43
aI88
aI56
aI59
aI92
aI93
aI63
atp1535
Rp1536
sI92
g1256
((lp1537
I91
aI72
aI43
aI88
aI84
aI56
aI59
aI93
aI63
atp1538
Rp1539
sI93
g1256
((lp1540
I91
aI40
aI43
aI72
aI56
aI88
aI59
aI92
aI63
atp1541
Rp1542
sI94
g1256
((lp1543
I97
aI98
aI99
aI100
aI10
aI55
aI57
aI90
aI61
atp1544
Rp1545
sI95
g1256
((lp1546
I67
aI36
aI74
aI14
aI99
aI19
aI53
aI25
aI62
atp1547
Rp1548
sI96
g1256
((lp1549
I69
aI70
aI39
aI75
aI76
aI50
aI52
aI85
aI60
atp1550
Rp1551
sI97
g1256
((lp1552
I98
aI99
aI100
aI10
aI55
aI57
aI90
aI91
aI61
aI94
atp1553
Rp1554
sI98
g1256
((lp1555
I97
aI99
aI100
aI10
aI55
aI57
aI90
aI27
aI61
aI94
atp1556
Rp1557
sI99
g1256
((lp1558
I97
aI98
aI100
aI55
aI57
aI90
aI27
aI61
aI94
aI95
atp1559
Rp1560
sI100
g1256
((lp1561
I97
aI98
aI99
aI10
aI42
aI55
aI57
aI90
aI27
aI61
aI94
atp1562
Rp1563
sI101
g1256
((lp1564
I144
aI129
aI142
aI118
atp1565
Rp1566
sI102
g1256
((lp1567
I132
aI123
aI108
aI145
atp1568
Rp1569
sI103
g1256
((lp1570
I122
aI147
aI109
aI149
atp1571
Rp1572
sI104
g1256
((lp1573
I128
aI113
aI146
aI137
atp1574
Rp1575
sI105
g1256
((lp1576
I178
aI179
aI186
aI182
atp1577
Rp1578
sI106
g1256
((lp1579
I166
aI134
aI126
aI158
atp1580
Rp1581
sI107
g1256
((lp1582
I131
aI124
aI141
aI165
atp1583
Rp1584
sI108
g1256
((lp1585
I145
aI140
aI181
aI102
atp1586
Rp1587
sI109
g1256
((lp1588
I122
aI147
aI149
aI103
atp1589
Rp1590
sI110
g1256
((lp1591
I200
aI194
aI197
aI198
atp1592
Rp1593
sI111
g1256
((lp1594
I184
aI171
aI116
aI173
atp1595
Rp1596
sI112
g1256
((lp1597
I184
aI154
aI171
aI173
atp1598
Rp1599
sI113
g1256
((lp1600
I104
aI137
aI130
aI146
atp1601
Rp1602
sI114
g1256
((lp1603
I153
aI195
aI174
aI167
atp1604
Rp1605
sI115
g1256
((lp1606
I166
aI134
aI126
aI158
atp1607
Rp1608
sI116
g1256
((lp1609
I184
aI154
aI171
aI111
atp1610
Rp1611
sI117
g1256
((lp1612
I147
aI180
aI187
aI189
atp1613
Rp1614
sI118
g1256
((lp1615
I144
aI129
aI101
aI142
atp1616
Rp1617
sI119
g1256
((lp1618
I162
aI195
aI125
aI167
atp1619
Rp1620
sI120
g1256
((lp1621
I165
aI124
aI133
aI141
atp1622
Rp1623
sI121
g1256
((lp1624
I184
aI154
aI171
aI173
atp1625
Rp1626
sI122
g1256
((lp1627
I149
aI147
aI109
aI103
atp1628
Rp1629
sI123
g1256
((lp1630
I140
aI132
aI102
aI145
atp1631
Rp1632
sI124
g1256
((lp1633
I120
aI107
aI133
aI165
atp1634
Rp1635
sI125
g1256
((lp1636
I167
aI195
aI174
aI119
atp1637
Rp1638
sI126
g1256
((lp1639
I106
aI115
aI166
aI158
atp1640
Rp1641
sI127
g1256
((lp1642
I200
aI198
aI190
aI199
atp1643
Rp1644
sI128
g1256
((lp1645
I104
aI137
aI130
aI146
atp1646
Rp1647
sI129
g1256
((lp1648
I144
aI101
aI118
aI142
atp1649
Rp1650
sI130
g1256
((lp1651
I128
aI113
aI146
aI137
atp1652
Rp1653
sI131
g1256
((lp1654
I107
aI141
aI165
atp1655
Rp1656
sI132
g1256
((lp1657
I145
aI123
aI140
aI102
atp1658
Rp1659
sI133
g1256
((lp1660
I120
aI124
aI141
aI165
atp1661
Rp1662
sI134
g1256
((lp1663
I106
aI115
aI166
aI158
aI183
atp1664
Rp1665
sI135
g1256
((lp1666
I168
aI187
aI164
aI181
aI189
atp1667
Rp1668
sI136
g1256
((lp1669
I153
aI162
aI195
aI174
aI167
atp1670
Rp1671
sI137
g1256
((lp1672
I104
aI113
aI128
aI130
aI146
atp1673
Rp1674
sI138
g1256
((lp1675
I177
aI186
aI179
aI182
aI183
atp1676
Rp1677
sI139
g1256
((lp1678
I152
aI169
aI176
aI196
aI185
atp1679
Rp1680
sI140
g1256
((lp1681
I132
aI193
aI123
aI108
aI145
atp1682
Rp1683
sI141
g1256
((lp1684
I120
aI107
aI131
aI133
aI165
atp1685
Rp1686
sI142
g1256
((lp1687
I144
aI129
aI200
aI101
aI118
atp1688
Rp1689
sI143
g1256
((lp1690
I192
aI188
aI193
aI156
aI191
atp1691
Rp1692
sI144
g1256
((lp1693
I129
aI170
aI101
aI118
aI142
atp1694
Rp1695
sI145
g1256
((lp1696
I132
aI140
aI123
aI108
aI102
atp1697
Rp1698
sI146
g1256
((lp1699
I104
aI113
aI128
aI130
aI137
atp1700
Rp1701
sI147
g1256
((lp1702
I149
aI122
aI117
aI109
aI103
atp1703
Rp1704
sI148
g1256
((lp1705
I168
aI187
aI180
aI181
aI189
atp1706
Rp1707
sI149
g1256
((lp1708
I122
aI147
aI109
aI158
aI103
atp1709
Rp1710
sI150
g1256
((lp1711
I176
aI185
aI170
aI196
aI175
atp1712
Rp1713
sI151
g1256
((lp1714
I178
aI186
aI173
aI182
aI183
atp1715
Rp1716
sI152
g1256
((lp1717
I196
aI169
aI170
aI139
aI175
aI185
atp1718
Rp1719
sI153
g1256
((lp1720
I162
aI163
aI136
aI174
aI114
aI195
atp1721
Rp1722
sI154
g1256
((lp1723
I171
aI173
aI112
aI116
aI184
aI121
atp1724
Rp1725
sI155
g1256
((lp1726
I194
aI197
aI198
aI199
aI200
aI190
atp1727
Rp1728
sI156
g1256
((lp1729
I192
aI193
aI172
aI143
aI188
aI191
atp1730
Rp1731
sI157
g1256
((lp1732
I194
aI197
aI198
aI199
aI200
aI190
atp1733
Rp1734
sI158
g1256
((lp1735
I134
aI166
aI106
aI115
aI149
aI126
atp1736
Rp1737
sI159
g1256
((lp1738
I192
aI193
aI163
aI172
aI188
aI191
atp1739
Rp1740
sI160
g1256
((lp1741
I196
aI169
aI170
aI175
aI176
aI185
atp1742
Rp1743
sI161
g1256
((lp1744
I194
aI197
aI198
aI199
aI200
aI190
atp1745
Rp1746
sI162
g1256
((lp1747
I195
aI167
aI136
aI174
aI119
aI153
atp1748
Rp1749
sI163
g1256
((lp1750
I192
aI193
aI153
aI159
aI188
aI191
atp1751
Rp1752
sI164
g1256
((lp1753
I135
aI168
aI180
aI181
aI187
aI189
atp1754
Rp1755
sI165
g1256
((lp1756
I131
aI133
aI107
aI141
aI120
aI124
atp1757
Rp1758
sI166
g1256
((lp1759
I134
aI106
aI177
aI115
aI158
aI126
atp1760
Rp1761
sI167
g1256
((lp1762
I162
aI195
aI136
aI174
aI114
aI119
aI125
atp1763
Rp1764
sI168
g1256
((lp1765
I164
aI135
aI180
aI181
aI148
aI187
aI189
atp1766
Rp1767
sI169
g1256
((lp1768
I160
aI196
aI170
aI139
aI175
aI152
aI185
atp1769
Rp1770
sI170
g1256
((lp1771
I160
aI176
aI196
aI169
aI144
aI150
aI152
atp1772
Rp1773
sI171
g1256
((lp1774
I173
aI111
aI112
aI116
aI184
aI121
aI154
atp1775
Rp1776
sI172
g1256
((lp1777
I192
aI193
aI156
aI159
aI187
aI188
aI191
atp1778
Rp1779
sI173
g1256
((lp1780
I171
aI111
aI112
aI151
aI184
aI121
aI154
atp1781
Rp1782
sI174
g1256
((lp1783
I162
aI195
aI167
aI136
aI114
aI153
aI125
atp1784
Rp1785
sI175
g1256
((lp1786
I160
aI196
aI169
aI176
aI150
aI152
aI185
atp1787
Rp1788
sI176
g1256
((lp1789
I160
aI196
aI170
aI139
aI175
aI150
aI185
atp1790
Rp1791
sI177
g1256
((lp1792
I166
aI138
aI178
aI179
aI182
aI183
aI186
atp1793
Rp1794
sI178
g1256
((lp1795
I105
aI151
aI177
aI179
aI182
aI183
aI186
atp1796
Rp1797
sI179
g1256
((lp1798
I105
aI138
aI177
aI178
aI182
aI183
aI186
atp1799
Rp1800
sI180
g1256
((lp1801
I164
aI168
aI148
aI117
aI187
aI188
aI189
aI181
atp1802
Rp1803
sI181
g1256
((lp1804
I164
aI135
aI168
aI108
aI148
aI180
aI187
aI189
atp1805
Rp1806
sI182
g1256
((lp1807
I105
aI138
aI183
aI177
aI178
aI179
aI151
aI186
atp1808
Rp1809
sI183
g1256
((lp1810
I134
aI138
aI177
aI178
aI179
aI182
aI151
aI186
atp1811
Rp1812
sI184
g1256
((lp1813
I192
aI171
aI173
aI111
aI112
aI116
aI121
aI154
atp1814
Rp1815
sI185
g1256
((lp1816
I160
aI196
aI169
aI139
aI175
aI176
aI150
aI152
atp1817
Rp1818
sI186
g1256
((lp1819
I105
aI138
aI183
aI177
aI178
aI179
aI182
aI151
aI189
atp1820
Rp1821
sI187
g1256
((lp1822
I164
aI135
aI168
aI172
aI148
aI117
aI180
aI189
aI181
atp1823
Rp1824
sI188
g1256
((lp1825
I192
aI193
aI163
aI172
aI143
aI180
aI191
aI156
aI159
atp1826
Rp1827
sI189
g1256
((lp1828
I164
aI135
aI168
aI180
aI117
aI148
aI186
aI187
aI181
atp1829
Rp1830
sI190
g1256
((lp1831
I161
aI194
aI197
aI198
aI199
aI200
aI155
aI157
aI127
atp1832
Rp1833
sI191
g1256
((lp1834
I192
aI193
aI163
aI197
aI156
aI172
aI143
aI188
aI159
atp1835
Rp1836
sI192
g1256
((lp1837
I193
aI163
aI188
aI172
aI143
aI184
aI191
aI156
aI159
atp1838
Rp1839
sI193
g1256
((lp1840
I192
aI163
aI140
aI172
aI143
aI188
aI191
aI156
aI159
atp1841
Rp1842
sI194
g1256
((lp1843
I161
aI197
aI198
aI199
aI200
aI110
aI155
aI157
aI190
atp1844
Rp1845
sI195
g1256
((lp1846
I162
aI167
aI136
aI199
aI174
aI114
aI119
aI153
aI125
atp1847
Rp1848
sI196
g1256
((lp1849
I160
aI169
aI170
aI139
aI175
aI176
aI150
aI152
aI185
atp1850
Rp1851
sI197
g1256
((lp1852
I161
aI194
aI198
aI199
aI200
aI110
aI155
aI157
aI190
aI191
atp1853
Rp1854
sI198
g1256
((lp1855
I161
aI194
aI197
aI199
aI200
aI110
aI155
aI157
aI190
aI127
atp1856
Rp1857
sI199
g1256
((lp1858
I161
aI194
aI195
aI197
aI198
aI200
aI155
aI157
aI190
aI127
atp1859
Rp1860
sI200
g1256
((lp1861
I161
aI194
aI197
aI198
aI199
aI142
aI110
aI155
aI157
aI190
aI127
atp1862
Rp1863
sa(dp1864
I1
g1256
((lp1865
I105
aI180
aI134
atp1866
Rp1867
sI4
g1256
((lp1868
I188
aI108
aI166
aI135
atp1869
Rp1870
sI6
g1256
((lp1871
I145
aI175
aI132
aI173
aI191
atp1872
Rp1873
sI7
g1256
((lp1874
I155
aI116
aI127
atp1875
Rp1876
sI10
g1256
((lp1877
I111
aI158
aI183
atp1878
Rp1879
sI11
g1256
((lp1880
I160
aI193
aI173
aI134
atp1881
Rp1882
sI12
g1256
((lp1883
I200
aI108
aI140
aI175
aI185
aI187
atp1884
Rp1885
sI13
g1256
((lp1886
I106
aI132
atp1887
Rp1888
sI15
g1256
((lp1889
I193
aI194
aI102
aI139
aI143
aI179
atp1890
Rp1891
sI16
g1256
((lp1892
I140
aI150
atp1893
Rp1894
sI17
g1256
((lp1895
I150
aI111
atp1896
Rp1897
sI18
g1256
((lp1898
I135
aI106
aI117
aI182
aI188
aI126
aI127
atp1899
Rp1900
sI20
g1256
((lp1901
I188
aI157
aI158
aI199
atp1902
Rp1903
sI21
g1256
((lp1904
I170
aI166
aI191
atp1905
Rp1906
sI24
g1256
((lp1907
I200
aI184
aI132
aI198
aI151
atp1908
Rp1909
sI26
g1256
((lp1910
I192
aI163
aI102
aI200
aI151
aI126
atp1911
Rp1912
sI27
g1256
((lp1913
I177
aI194
aI127
atp1914
Rp1915
sI28
g1256
((lp1916
I154
aI102
aI134
atp1917
Rp1918
sI29
g1256
((lp1919
I134
aI102
aI168
aI106
aI140
aI150
aI121
aI187
aI188
atp1920
Rp1921
sI30
g1256
((lp1922
I135
aI139
aI108
aI110
aI111
aI158
atp1923
Rp1924
sI31
g1256
((lp1925
I112
aI156
aI190
atp1926
Rp1927
sI33
g1256
((lp1928
I176
aI161
aI151
aI182
aI169
atp1929
Rp1930
sI34
g1256
((lp1931
I176
aI178
aI179
aI117
aI154
aI123
aI156
atp1932
Rp1933
sI35
g1256
((lp1934
I154
aI157
aI191
atp1935
Rp1936
sI37
g1256
((lp1937
I196
aI102
aI139
aI177
aI188
aI126
aI127
atp1938
Rp1939
sI41
g1256
((lp1940
I179
aI108
aI115
aI185
aI154
aI197
atp1941
Rp1942
sI42
g1256
((lp1943
I196
aI140
aI145
aI148
aI181
aI151
aI191
atp1944
Rp1945
sI43
g1256
((lp1946
I108
atp1947
Rp1948
sI44
g1256
((lp1949
I112
aI152
aI192
aI164
aI189
atp1950
Rp1951
sI46
g1256
((lp1952
I112
aI186
aI115
aI172
atp1953
Rp1954
sI48
g1256
((lp1955
I108
aI173
aI134
aI199
atp1956
Rp1957
sI54
g1256
((lp1958
I176
aI169
aI163
aI180
aI151
atp1959
Rp1960
sI55
g1256
((lp1961
I112
aI168
aI138
aI154
atp1962
Rp1963
sI56
g1256
((lp1964
I145
aI178
aI150
aI158
aI127
atp1965
Rp1966
sI57
g1256
((lp1967
I196
aI199
aI105
aI106
aI172
aI140
aI189
atp1968
Rp1969
sI58
g1256
((lp1970
I173
aI115
aI188
aI189
aI159
atp1971
Rp1972
sI59
g1256
((lp1973
I200
aI108
atp1974
Rp1975
sI61
g1256
((lp1976
I151
atp1977
Rp1978
sI63
g1256
((lp1979
I193
aI138
aI180
aI181
aI123
aI170
atp1980
Rp1981
sI64
g1256
((lp1982
I112
aI166
atp1983
Rp1984
sI65
g1256
((lp1985
I194
aI180
aI110
atp1986
Rp1987
sI66
g1256
((lp1988
I152
aI172
aI173
aI199
atp1989
Rp1990
sI68
g1256
((lp1991
I121
aI123
aI166
aI185
atp1992
Rp1993
sI71
g1256
((lp1994
I105
aI196
atp1995
Rp1996
sI72
g1256
((lp1997
I168
aI140
aI182
aI158
aI199
atp1998
Rp1999
sI73
g1256
((lp2000
I152
aI156
aI138
aI163
aI116
atp2001
Rp2002
sI80
g1256
((lp2003
I112
aI123
aI164
aI126
atp2004
Rp2005
sI81
g1256
((lp2006
I164
aI116
atp2007
Rp2008
sI84
g1256
((lp2009
I115
aI121
aI139
atp2010
Rp2011
sI87
g1256
((lp2012
I123
aI171
aI157
aI159
atp2013
Rp2014
sI88
g1256
((lp2015
I105
aI132
atp2016
Rp2017
sI89
g1256
((lp2018
I184
aI186
aI117
atp2019
Rp2020
sI90
g1256
((lp2021
I152
aI177
aI164
aI197
aI158
atp2022
Rp2023
sI91
g1256
((lp2024
I115
aI177
aI154
aI123
aI179
atp2025
Rp2026
sI92
g1256
((lp2027
I171
aI102
atp2028
Rp2029
sI93
g1256
((lp2030
I145
aI159
atp2031
Rp2032
sI94
g1256
((lp2033
I192
aI102
aI171
aI111
aI112
aI178
atp2034
Rp2035
sI97
g1256
((lp2036
I179
aI164
aI199
atp2037
Rp2038
sI98
g1256
((lp2039
I186
aI139
aI132
atp2040
Rp2041
sI99
g1256
((lp2042
I151
atp2043
Rp2044
sI100
g1256
((lp2045
I115
aI164
aI187
aI182
atp2046
Rp2047
sI102
g1256
((lp2048
I37
aI92
aI15
aI26
aI28
aI29
aI94
atp2049
Rp2050
sI105
g1256
((lp2051
I88
aI57
aI71
aI1
atp2052
Rp2053
sI106
g1256
((lp2054
I57
aI18
aI13
aI29
atp2055
Rp2056
sI108
g1256
((lp2057
I4
aI41
aI43
aI12
aI48
aI59
aI30
atp2058
Rp2059
sI110
g1256
((lp2060
I65
aI30
atp2061
Rp2062
sI111
g1256
((lp2063
I17
aI10
aI30
aI94
atp2064
Rp2065
sI112
g1256
((lp2066
I64
aI44
aI46
aI80
aI55
aI94
aI31
atp2067
Rp2068
sI115
g1256
((lp2069
I100
aI41
aI46
aI84
aI58
aI91
atp2070
Rp2071
sI116
g1256
((lp2072
I81
aI73
aI7
atp2073
Rp2074
sI117
g1256
((lp2075
I89
aI18
aI34
atp2076
Rp2077
sI121
g1256
((lp2078
I84
aI68
aI29
atp2079
Rp2080
sI123
g1256
((lp2081
I34
aI68
aI80
aI87
aI91
aI63
atp2082
Rp2083
sI126
g1256
((lp2084
I80
aI26
aI18
aI37
atp2085
Rp2086
sI127
g1256
((lp2087
I56
aI18
aI27
aI37
aI7
atp2088
Rp2089
sI132
g1256
((lp2090
I88
aI24
aI98
aI13
aI6
atp2091
Rp2092
sI134
g1256
((lp2093
I48
aI1
aI11
aI28
aI29
atp2094
Rp2095
sI135
g1256
((lp2096
I18
aI4
aI30
atp2097
Rp2098
sI138
g1256
((lp2099
I73
aI63
aI55
atp2100
Rp2101
sI139
g1256
((lp2102
I98
aI84
aI37
aI30
aI15
atp2103
Rp2104
sI140
g1256
((lp2105
I72
aI42
aI12
aI16
aI57
aI29
atp2106
Rp2107
sI143
g1256
((lp2108
I15
atp2109
Rp2110
sI145
g1256
((lp2111
I56
aI42
aI93
aI6
atp2112
Rp2113
sI148
g1256
((lp2114
I42
atp2115
Rp2116
sI150
g1256
((lp2117
I16
aI56
aI29
aI17
atp2118
Rp2119
sI151
g1256
((lp2120
I33
aI99
aI42
aI54
aI24
aI26
aI61
atp2121
Rp2122
sI152
g1256
((lp2123
I73
aI66
aI44
aI90
atp2124
Rp2125
sI154
g1256
((lp2126
I34
aI35
aI41
aI55
aI91
aI28
atp2127
Rp2128
sI155
g1256
((lp2129
I7
atp2130
Rp2131
sI156
g1256
((lp2132
I73
aI34
aI31
atp2133
Rp2134
sI157
g1256
((lp2135
I35
aI20
aI87
atp2136
Rp2137
sI158
g1256
((lp2138
I72
aI10
aI20
aI56
aI90
aI30
atp2139
Rp2140
sI159
g1256
((lp2141
I58
aI93
aI87
atp2142
Rp2143
sI160
g1256
((lp2144
I11
atp2145
Rp2146
sI161
g1256
((lp2147
I33
atp2148
Rp2149
sI163
g1256
((lp2150
I73
aI26
aI54
atp2151
Rp2152
sI164
g1256
((lp2153
I97
aI100
aI44
aI80
aI81
aI90
atp2154
Rp2155
sI166
g1256
((lp2156
I64
aI68
aI4
aI21
atp2157
Rp2158
sI168
g1256
((lp2159
I72
aI29
aI55
atp2160
Rp2161
sI169
g1256
((lp2162
I33
aI54
atp2163
Rp2164
sI170
g1256
((lp2165
I21
aI63
atp2166
Rp2167
sI171
g1256
((lp2168
I92
aI94
aI87
atp2169
Rp2170
sI172
g1256
((lp2171
I57
aI66
aI46
atp2172
Rp2173
sI173
g1256
((lp2174
I48
aI66
aI11
aI58
aI6
atp2175
Rp2176
sI175
g1256
((lp2177
I12
aI6
atp2178
Rp2179
sI176
g1256
((lp2180
I33
aI34
aI54
atp2181
Rp2182
sI177
g1256
((lp2183
I91
aI90
aI27
aI37
atp2184
Rp2185
sI178
g1256
((lp2186
I56
aI34
aI94
atp2187
Rp2188
sI179
g1256
((lp2189
I15
aI97
aI34
aI91
aI41
atp2190
Rp2191
sI180
g1256
((lp2192
I1
aI54
aI65
aI63
atp2193
Rp2194
sI181
g1256
((lp2195
I42
aI63
atp2196
Rp2197
sI182
g1256
((lp2198
I72
aI33
aI18
aI100
atp2199
Rp2200
sI183
g1256
((lp2201
I10
atp2202
Rp2203
sI184
g1256
((lp2204
I24
aI89
atp2205
Rp2206
sI185
g1256
((lp2207
I68
aI12
aI41
atp2208
Rp2209
sI186
g1256
((lp2210
I89
aI98
aI46
atp2211
Rp2212
sI187
g1256
((lp2213
I12
aI100
aI29
atp2214
Rp2215
sI188
g1256
((lp2216
I4
aI37
aI18
aI20
aI58
aI29
atp2217
Rp2218
sI189
g1256
((lp2219
I57
aI58
aI44
atp2220
Rp2221
sI190
g1256
((lp2222
I31
atp2223
Rp2224
sI191
g1256
((lp2225
I42
aI35
aI21
aI6
atp2226
Rp2227
sI192
g1256
((lp2228
I26
aI44
aI94
atp2229
Rp2230
sI193
g1256
((lp2231
I11
aI63
aI15
atp2232
Rp2233
sI194
g1256
((lp2234
I65
aI27
aI15
atp2235
Rp2236
sI196
g1256
((lp2237
I57
aI42
aI37
aI71
atp2238
Rp2239
sI197
g1256
((lp2240
I41
aI90
atp2241
Rp2242
sI198
g1256
((lp2243
I24
atp2244
Rp2245
sI199
g1256
((lp2246
I97
aI66
aI72
aI48
aI20
aI57
atp2247
Rp2248
sI200
g1256
((lp2249
I24
aI26
aI59
aI12
atp2250
Rp2251
sa(dp2252
I1
I1
sa(dp2253
I1
I2
sa(dp2254
I1
g1256
((lp2255
I1
aI2
aI3
aI4
aI5
aI6
aI7
aI8
aI9
aI10
aI11
aI12
aI13
aI14
aI15
aI16
aI17
aI18
aI19
aI20
aI21
aI22
aI23
aI24
aI25
aI26
aI27
aI28
aI29
aI30
aI31
aI32
aI33
aI34
aI35
aI36
aI37
aI38
aI39
aI40
aI41
aI42
aI43
aI44
aI45
aI46
aI47
aI48
aI49
aI50
aI51
aI52
aI53
aI54
aI55
aI56
aI57
aI58
aI59
aI60
aI61
aI62
aI63
aI64
aI65
aI66
aI67
aI68
aI69
aI70
aI71
aI72
aI73
aI74
aI75
aI76
aI77
aI78
aI79
aI80
aI81
aI82
aI83
aI84
aI85
aI86
aI87
aI88
aI89
aI90
aI91
aI92
aI93
aI94
aI95
aI96
aI97
aI98
aI99
aI100
aI101
aI102
aI103
aI104
aI105
aI106
aI107
aI108
aI109
aI110
aI111
aI112
aI113
aI114
aI115
aI116
aI117
aI118
aI119
aI120
aI121
aI122
aI123
aI124
aI125
aI126
aI127
aI128
aI129
aI130
aI131
aI132
aI133
aI134
aI135
aI136
aI137
aI138
aI139
aI140
aI141
aI142
aI143
aI144
aI145
aI146
aI147
aI148
aI149
aI150
aI151
aI152
aI153
aI154
aI155
aI156
aI157
aI158
aI159
aI160
aI161
aI162
aI163
aI164
aI165
aI166
aI167
aI168
aI169
aI170
aI171
aI172
aI173
aI174
aI175
aI176
aI177
aI178
aI179
aI180
aI181
aI182
aI183
aI184
aI185
aI186
aI187
aI188
aI189
aI190
aI191
aI192
aI193
aI194
aI195
aI196
aI197
aI198
aI199
aI200
atp2256
Rp2257
sa(dp2258
I1
I590
sI2
I590
sa(dp2259
I1
I247
saI0
a(dp2260
I1
g1256
((lp2261
I192
aI193
aI66
aI163
aI6
aI188
aI191
aI172
aI34
aI15
aI26
aI143
aI156
aI58
aI159
atp2262
Rp2263
sI2
g1256
((lp2264
I1
aI164
aI135
aI168
aI42
aI44
aI189
aI18
aI148
aI117
aI180
aI187
aI29
aI181
atp2265
Rp2266
sI3
g1256
((lp2267
I4
aI37
aI134
aI158
aI106
aI13
aI46
aI115
aI126
aI28
aI30
aI166
atp2268
Rp2269
sI4
g1256
((lp2270
I91
aI132
aI102
aI145
aI72
aI140
aI43
aI108
aI88
aI123
aI56
aI59
aI92
aI93
aI63
atp2271
Rp2272
sI5
g1256
((lp2273
I97
aI98
aI99
aI100
aI182
aI183
aI105
aI10
aI151
aI177
aI178
aI179
aI186
aI138
aI55
aI57
aI90
aI27
aI61
aI94
atp2274
Rp2275
sI6
g1256
((lp2276
I64
aI80
aI35
aI68
aI121
aI81
aI112
aI171
aI173
aI111
aI48
aI17
aI116
aI87
aI184
aI89
aI154
atp2277
Rp2278
sI7
g1256
((lp2279
I160
aI176
aI139
aI196
aI150
aI71
aI73
aI170
aI11
aI12
aI175
aI16
aI84
aI21
aI54
aI169
aI152
aI185
atp2280
Rp2281
sI8
g1256
((lp2282
I198
aI33
aI194
aI155
aI161
aI197
aI65
aI7
aI200
aI41
aI199
aI110
aI20
aI24
aI127
aI157
aI190
aI31
atp2283
Rp2284
sI9
g1256
((lp2285
I9
aI3
aI49
aI22
aI47
atp2286
Rp2287
sI10
g1256
((lp2288
I67
aI36
aI74
aI14
aI19
aI53
aI25
aI62
aI95
atp2289
Rp2290
sI11
g1256
((lp2291
I32
aI2
aI8
aI45
aI40
aI23
atp2292
Rp2293
sI12
g1256
((lp2294
I96
aI69
aI70
aI39
aI75
aI76
aI50
aI52
aI85
aI60
atp2295
Rp2296
sI13
g1256
((lp2297
I83
aI5
aI38
aI77
aI78
aI79
aI82
aI51
aI86
atp2298
Rp2299
sI14
g1256
((lp2300
I144
aI129
aI101
aI118
aI142
atp2301
Rp2302
sI15
g1256
((lp2303
I128
aI130
aI104
aI137
aI113
aI146
atp2304
Rp2305
sI16
g1256
((lp2306
I149
aI122
aI147
aI109
aI103
atp2307
Rp2308
sI17
g1256
((lp2309
I162
aI195
aI167
aI136
aI174
aI114
aI119
aI153
aI125
atp2310
Rp2311
sI18
g1256
((lp2312
I131
aI133
aI107
aI141
aI120
aI124
aI165
atp2313
Rp2314
sa.