(lp0
(dp1
I1
I0
sI2
I1
sI3
I2
sI4
I3
sI5
I4
sI6
I5
sI7
I6
sI8
I7
sI9
I2
sI10
I8
sI11
I9
sI12
I9
sI13
I3
sI14
I10
sI15
I5
sI16
I9
sI17
I11
sI18
I0
sI19
I10
sI20
I6
sI21
I9
sI22
I2
sI23
I7
sI24
I6
sI25
I10
sI26
I5
sI27
I8
sI28
I3
sI29
I0
sI30
I3
sI31
I6
sI32
I7
sI33
I6
sI34
I5
sI35
I11
sI36
I10
sI37
I3
sI38
I4
sI39
I12
sI40
I7
sI41
I6
sI42
I0
sI43
I13
sI44
I0
sI45
I7
sI46
I3
sI47
I2
sI48
I11
sI49
I2
sI50
I12
sI51
I4
sI52
I12
sI53
I10
sI54
I9
sI55
I8
sI56
I13
sI57
I8
sI58
I5
sI59
I13
sI60
I12
sI61
I8
sI62
I10
sI63
I13
sI64
I11
sI65
I6
sI66
I5
sI67
I10
sI68
I11
sI69
I12
sI70
I12
sI71
I9
sI72
I13
sI73
I9
sI74
I10
sI75
I12
sI76
I12
sI77
I4
sI78
I4
sI79
I4
sI80
I11
sI81
I11
sI82
I4
sI83
I4
sI84
I9
sI85
I12
sI86
I4
sI87
I11
sI88
I13
sI89
I11
sI90
I8
sI91
I13
sI92
I13
sI93
I13
sI94
I8
sI95
I10
sI96
I12
sI97
I8
sI98
I8
sI99
I8
sI100
I8
sI101
I13
sI102
I12
sI103
I2
sI104
I14
sI105
I10
sI106
I15
sI107
I16
sI108
I12
sI109
I2
sI110
I17
sI111
I3
sI112
I3
sI113
I14
sI114
I5
sI115
I15
sI116
I3
sI117
I11
sI118
I13
sI119
I5
sI120
I18
sI121
I3
sI122
I2
sI123
I12
sI124
I18
sI125
I5
sI126
I15
sI127
I17
sI128
I14
sI129
I13
sI130
I14
sI131
I16
sI132
I12
sI133
I18
sI134
I15
sI135
I7
sI136
I5
sI137
I14
sI138
I19
sI139
I1
sI140
I12
sI141
I16
sI142
I13
sI143
I20
sI144
I13
sI145
I12
sI146
I14
sI147
I2
sI148
I7
sI149
I2
sI150
I1
sI151
I19
sI152
I1
sI153
I5
sI154
I3
sI155
I17
sI156
I20
sI157
I17
sI158
I15
sI159
I20
sI160
I1
sI161
I17
sI162
I5
sI163
I20
sI164
I7
sI165
I16
sI166
I15
sI167
I5
sI168
I7
sI169
I1
sI170
I1
sI171
I3
sI172
I20
sI173
I3
sI174
I5
sI175
I1
sI176
I1
sI177
I19
sI178
I19
sI179
I19
sI180
I7
sI181
I7
sI182
I19
sI183
I19
sI184
I3
sI185
I1
sI186
I19
sI187
I7
sI188
I20
sI189
I7
sI190
I17
sI191
I20
sI192
I20
sI193
I20
sI194
I17
sI195
I5
sI196
I1
sI197
I17
sI198
I17
sI199
I17
sI200
I17
sa(dp2
I0
I0
sI1
I1
sI2
I2
sI3
I3
sI4
I4
sI5
I5
sI6
I6
sI7
I1
sI8
I7
sI9
I8
sI10
I9
sI11
I1
sI12
I10
sI13
I11
sI14
I12
sI15
I13
sI16
I14
sI17
I15
sI18
I14
sI19
I9
sI20
I16
sa.