(lp0
(dp1
I1
I0
sI2
I1
sI3
I2
sI4
I3
sI5
I4
sI6
I5
sI7
I6
sI8
I1
sI9
I2
sI10
I7
sI11
I8
sI12
I8
sI13
I3
sI14
I9
sI15
I5
sI16
I8
sI17
I10
sI18
I11
sI19
I9
sI20
I6
sI21
I8
sI22
I2
sI23
I1
sI24
I6
sI25
I9
sI26
I5
sI27
I7
sI28
I3
sI29
I11
sI30
I3
sI31
I6
sI32
I1
sI33
I6
sI34
I5
sI35
I12
sI36
I9
sI37
I3
sI38
I4
sI39
I13
sI40
I1
sI41
I6
sI42
I11
sI43
I14
sI44
I11
sI45
I1
sI46
I3
sI47
I2
sI48
I12
sI49
I2
sI50
I13
sI51
I4
sI52
I13
sI53
I9
sI54
I8
sI55
I7
sI56
I14
sI57
I7
sI58
I5
sI59
I14
sI60
I13
sI61
I7
sI62
I9
sI63
I14
sI64
I12
sI65
I6
sI66
I5
sI67
I9
sI68
I12
sI69
I13
sI70
I13
sI71
I8
sI72
I14
sI73
I8
sI74
I9
sI75
I13
sI76
I13
sI77
I4
sI78
I4
sI79
I4
sI80
I12
sI81
I12
sI82
I4
sI83
I4
sI84
I8
sI85
I13
sI86
I4
sI87
I12
sI88
I14
sI89
I12
sI90
I7
sI91
I14
sI92
I14
sI93
I14
sI94
I7
sI95
I9
sI96
I13
sI97
I7
sI98
I7
sI99
I7
sI100
I7
sI101
I9
sI102
I15
sI103
I16
sI104
I3
sI105
I17
sI106
I8
sI107
I18
sI108
I15
sI109
I16
sI110
I12
sI111
I14
sI112
I14
sI113
I3
sI114
I0
sI115
I8
sI116
I14
sI117
I19
sI118
I9
sI119
I0
sI120
I20
sI121
I14
sI122
I16
sI123
I15
sI124
I20
sI125
I0
sI126
I8
sI127
I10
sI128
I3
sI129
I9
sI130
I3
sI131
I18
sI132
I15
sI133
I20
sI134
I8
sI135
I19
sI136
I0
sI137
I3
sI138
I17
sI139
I5
sI140
I15
sI141
I18
sI142
I9
sI143
I4
sI144
I9
sI145
I15
sI146
I3
sI147
I16
sI148
I19
sI149
I16
sI150
I5
sI151
I17
sI152
I5
sI153
I0
sI154
I14
sI155
I10
sI156
I21
sI157
I10
sI158
I8
sI159
I21
sI160
I5
sI161
I10
sI162
I0
sI163
I21
sI164
I19
sI165
I18
sI166
I8
sI167
I0
sI168
I19
sI169
I5
sI170
I5
sI171
I14
sI172
I21
sI173
I14
sI174
I0
sI175
I5
sI176
I5
sI177
I17
sI178
I17
sI179
I17
sI180
I19
sI181
I19
sI182
I17
sI183
I17
sI184
I14
sI185
I5
sI186
I17
sI187
I19
sI188
I21
sI189
I19
sI190
I10
sI191
I21
sI192
I21
sI193
I21
sI194
I10
sI195
I0
sI196
I5
sI197
I10
sI198
I10
sI199
I10
sI200
I10
sa(dp2
I0
I0
sI1
I1
sI2
I2
sI3
I3
sI4
I4
sI5
I5
sI6
I6
sI7
I7
sI8
I8
sI9
I9
sI10
I10
sI11
I0
sI12
I10
sI13
I11
sI14
I12
sI15
I13
sI16
I14
sI17
I15
sI18
I16
sI19
I17
sI20
I16
sI21
I4
sa.