(lp0
(dp1
I1
I0
sI2
I1
sI3
I2
sI4
I3
sI5
I4
sI6
I5
sI7
I6
sI8
I1
sI9
I2
sI10
I7
sI11
I8
sI12
I9
sI13
I3
sI14
I10
sI15
I11
sI16
I8
sI17
I12
sI18
I0
sI19
I10
sI20
I6
sI21
I13
sI22
I2
sI23
I1
sI24
I6
sI25
I10
sI26
I11
sI27
I7
sI28
I3
sI29
I0
sI30
I3
sI31
I6
sI32
I1
sI33
I6
sI34
I11
sI35
I12
sI36
I10
sI37
I3
sI38
I14
sI39
I15
sI40
I1
sI41
I6
sI42
I0
sI43
I16
sI44
I0
sI45
I1
sI46
I3
sI47
I2
sI48
I12
sI49
I2
sI50
I15
sI51
I14
sI52
I15
sI53
I10
sI54
I8
sI55
I7
sI56
I16
sI57
I7
sI58
I11
sI59
I16
sI60
I15
sI61
I7
sI62
I10
sI63
I16
sI64
I12
sI65
I6
sI66
I11
sI67
I10
sI68
I12
sI69
I15
sI70
I15
sI71
I8
sI72
I16
sI73
I8
sI74
I10
sI75
I15
sI76
I15
sI77
I14
sI78
I14
sI79
I14
sI80
I12
sI81
I12
sI82
I14
sI83
I14
sI84
I8
sI85
I15
sI86
I14
sI87
I12
sI88
I16
sI89
I12
sI90
I7
sI91
I16
sI92
I16
sI93
I16
sI94
I7
sI95
I10
sI96
I15
sI97
I7
sI98
I7
sI99
I7
sI100
I7
sI101
I12
sI102
I0
sI103
I7
sI104
I17
sI105
I18
sI106
I19
sI107
I20
sI108
I0
sI109
I7
sI110
I10
sI111
I13
sI112
I13
sI113
I17
sI114
I14
sI115
I19
sI116
I16
sI117
I21
sI118
I12
sI119
I14
sI120
I22
sI121
I13
sI122
I7
sI123
I0
sI124
I22
sI125
I14
sI126
I19
sI127
I5
sI128
I17
sI129
I12
sI130
I17
sI131
I20
sI132
I0
sI133
I22
sI134
I19
sI135
I21
sI136
I14
sI137
I17
sI138
I18
sI139
I4
sI140
I0
sI141
I20
sI142
I12
sI143
I9
sI144
I12
sI145
I0
sI146
I17
sI147
I7
sI148
I21
sI149
I7
sI150
I4
sI151
I18
sI152
I4
sI153
I14
sI154
I13
sI155
I5
sI156
I9
sI157
I5
sI158
I19
sI159
I9
sI160
I4
sI161
I5
sI162
I14
sI163
I9
sI164
I21
sI165
I20
sI166
I19
sI167
I14
sI168
I21
sI169
I4
sI170
I4
sI171
I13
sI172
I9
sI173
I13
sI174
I14
sI175
I4
sI176
I4
sI177
I18
sI178
I18
sI179
I18
sI180
I21
sI181
I21
sI182
I18
sI183
I18
sI184
I13
sI185
I4
sI186
I18
sI187
I21
sI188
I9
sI189
I21
sI190
I5
sI191
I9
sI192
I9
sI193
I9
sI194
I5
sI195
I14
sI196
I4
sI197
I5
sI198
I5
sI199
I5
sI200
I5
sa(dp2
I0
I0
sI1
I1
sI2
I2
sI3
I3
sI4
I4
sI5
I2
sI6
I5
sI7
I6
sI8
I7
sI9
I7
sI10
I8
sI11
I2
sI12
I9
sI13
I8
sI14
I4
sI15
I10
sI16
I11
sI17
I12
sI18
I13
sI19
I13
sI20
I14
sI21
I15
sI22
I14
sa.