(lp0
ccopy_reg
_reconstructor
p1
(cnetworkx.classes.graph
Graph
p2
c__builtin__
object
p3
Ntp4
Rp5
(dp6
S'node'
p7
(dp8
I1
(dp9
sI2
(dp10
sI3
(dp11
sI4
(dp12
sI5
(dp13
sI6
(dp14
sI7
(dp15
sI8
(dp16
sI9
(dp17
sI10
(dp18
sI11
(dp19
sI12
(dp20
sI13
(dp21
sI14
(dp22
sI15
(dp23
sI16
(dp24
sI17
(dp25
sI18
(dp26
sI19
(dp27
sI20
(dp28
sI21
(dp29
sI22
(dp30
sI23
(dp31
sI24
(dp32
sI25
(dp33
sI26
(dp34
sI27
(dp35
sI28
(dp36
sI29
(dp37
sI30
(dp38
sI31
(dp39
sI32
(dp40
sI33
(dp41
sI34
(dp42
sI35
(dp43
sI36
(dp44
sI37
(dp45
sI38
(dp46
sI39
(dp47
sI40
(dp48
sI41
(dp49
sI42
(dp50
sI43
(dp51
sI44
(dp52
sI45
(dp53
sI46
(dp54
sI47
(dp55
sI48
(dp56
sI49
(dp57
sI50
(dp58
sI51
(dp59
sI52
(dp60
sI53
(dp61
sI54
(dp62
sI55
(dp63
sI56
(dp64
sI57
(dp65
sI58
(dp66
sI59
(dp67
sI60
(dp68
sI61
(dp69
sI62
(dp70
sI63
(dp71
sI64
(dp72
sI65
(dp73
sI66
(dp74
sI67
(dp75
sI68
(dp76
sI69
(dp77
sI70
(dp78
sI71
(dp79
sI72
(dp80
sI73
(dp81
sI74
(dp82
sI75
(dp83
sI76
(dp84
sI77
(dp85
sI78
(dp86
sI79
(dp87
sI80
(dp88
sI81
(dp89
sI82
(dp90
sI83
(dp91
sI84
(dp92
sI85
(dp93
sI86
(dp94
sI87
(dp95
sI88
(dp96
sI89
(dp97
sI90
(dp98
sI91
(dp99
sI92
(dp100
sI93
(dp101
sI94
(dp102
sI95
(dp103
sI96
(dp104
sI97
(dp105
sI98
(dp106
sI99
(dp107
sI100
(dp108
sI101
(dp109
sI102
(dp110
sI103
(dp111
sI104
(dp112
sI105
(dp113
sI106
(dp114
sI107
(dp115
sI108
(dp116
sI109
(dp117
sI110
(dp118
sI111
(dp119
sI112
(dp120
sI113
(dp121
sI114
(dp122
sI115
(dp123
sI116
(dp124
sI117
(dp125
sI118
(dp126
sI119
(dp127
sI120
(dp128
sI121
(dp129
sI122
(dp130
sI123
(dp131
sI124
(dp132
sI125
(dp133
sI126
(dp134
sI127
(dp135
sI128
(dp136
sI129
(dp137
sI130
(dp138
sI131
(dp139
sI132
(dp140
sI133
(dp141
sI134
(dp142
sI135
(dp143
sI136
(dp144
sI137
(dp145
sI138
(dp146
sI139
(dp147
sI140
(dp148
sI141
(dp149
sI142
(dp150
sI143
(dp151
sI144
(dp152
sI145
(dp153
sI146
(dp154
sI147
(dp155
sI148
(dp156
sI149
(dp157
sI150
(dp158
sI151
(dp159
sI152
(dp160
sI153
(dp161
sI154
(dp162
sI155
(dp163
sI156
(dp164
sI157
(dp165
sI158
(dp166
sI159
(dp167
sI160
(dp168
sI161
(dp169
sI162
(dp170
sI163
(dp171
sI164
(dp172
sI165
(dp173
sI166
(dp174
sI167
(dp175
sI168
(dp176
sI169
(dp177
sI170
(dp178
sI171
(dp179
sI172
(dp180
sI173
(dp181
sI174
(dp182
sI175
(dp183
sI176
(dp184
sI177
(dp185
sI178
(dp186
sI179
(dp187
sI180
(dp188
sI181
(dp189
sI182
(dp190
sI183
(dp191
sI184
(dp192
sI185
(dp193
sI186
(dp194
sI187
(dp195
sI188
(dp196
sI189
(dp197
sI190
(dp198
sI191
(dp199
sI192
(dp200
sI193
(dp201
sI194
(dp202
sI195
(dp203
sI196
(dp204
sI197
(dp205
sI198
(dp206
sI199
(dp207
sI200
(dp208
ssS'node_dict_factory'
p209
c__builtin__
dict
p210
sS'edge_attr_dict_factory'
p211
g210
sS'edge'
p212
(dp213
I1
(dp214
I18
(dp215
sI44
(dp216
sI42
(dp217
sI29
(dp218
ssI2
(dp219
I8
(dp220
sI32
(dp221
sI45
(dp222
sI23
(dp223
ssI3
(dp224
I9
(dp225
sI47
(dp226
sI176
(dp227
sI49
(dp228
sI179
(dp229
sI22
(dp230
sI123
(dp231
ssI4
(dp232
I28
(dp233
sI13
(dp234
sI46
(dp235
sI37
(dp236
ssI5
(dp237
I130
(dp238
sI105
(dp239
sI78
(dp240
sI79
(dp241
sI82
(dp242
sI86
(dp243
sI159
(dp244
ssI6
(dp245
I34
(dp246
sI66
(dp247
sI26
(dp248
sI123
(dp249
sI188
(dp250
sI58
(dp251
ssI7
(dp252
I24
(dp253
sI41
(dp254
sI31
(dp255
sI65
(dp256
ssI8
(dp257
I40
(dp258
sI81
(dp259
sI2
g220
sI45
(dp260
ssI9
(dp261
I128
(dp262
sI193
(dp263
sI3
g225
sI105
(dp264
sI47
(dp265
sI49
(dp266
sI22
(dp267
sI151
(dp268
sI123
(dp269
ssI10
(dp270
I160
(dp271
sI97
(dp272
sI98
(dp273
sI100
(dp274
sI197
(dp275
sI110
(dp276
sI155
(dp277
sI94
(dp278
ssI11
(dp279
I16
(dp280
sI73
(dp281
sI84
(dp282
sI71
(dp283
ssI12
(dp284
I73
(dp285
sI84
(dp286
sI54
(dp287
sI71
(dp288
ssI13
(dp289
I30
(dp290
sI4
g234
sI37
(dp291
sI46
(dp292
ssI14
(dp293
I74
(dp294
sI67
(dp295
sI53
(dp296
sI95
(dp297
ssI15
(dp298
I34
(dp299
sI66
(dp300
sI151
(dp301
sI26
(dp302
sI123
(dp303
sI58
(dp304
sI191
(dp305
ssI16
(dp306
I11
g280
sI84
(dp307
sI54
(dp308
sI71
(dp309
ssI17
(dp310
I192
(dp311
sI108
(dp312
sI47
(dp313
sI80
(dp314
sI177
(dp315
sI87
(dp316
sI89
(dp317
sI156
(dp318
ssI18
(dp319
I1
g215
sI42
(dp320
sI44
(dp321
sI29
(dp322
ssI19
(dp323
I25
(dp324
sI67
(dp325
sI62
(dp326
sI95
(dp327
ssI20
(dp328
I24
(dp329
sI33
(dp330
sI41
(dp331
sI65
(dp332
ssI21
(dp333
I73
(dp334
sI84
(dp335
sI54
(dp336
sI71
(dp337
ssI22
(dp338
I192
(dp339
sI3
g230
sI196
(dp340
sI9
g267
sI140
(dp341
sI178
(dp342
sI47
(dp343
sI49
(dp344
sI146
(dp345
sI182
(dp346
sI127
(dp347
ssI23
(dp348
I32
(dp349
sI40
(dp350
sI2
g223
sI45
(dp351
ssI24
(dp352
I33
(dp353
sI20
g329
sI65
(dp354
sI7
g253
ssI25
(dp355
I67
(dp356
sI19
g324
sI74
(dp357
sI95
(dp358
ssI26
(dp359
I192
(dp360
sI66
(dp361
sI6
g248
sI102
(dp362
sI199
(dp363
sI15
g302
sI178
(dp364
sI179
(dp365
sI182
(dp366
sI58
(dp367
sI159
(dp368
ssI27
(dp369
I185
(dp370
sI90
(dp371
sI99
(dp372
sI100
(dp373
sI98
(dp374
ssI28
(dp375
I30
(dp376
sI4
g233
sI37
(dp377
sI46
(dp378
ssI29
(dp379
I1
g218
sI18
g322
sI44
(dp380
sI42
(dp381
ssI30
(dp382
I28
g376
sI13
g290
sI46
(dp383
sI37
(dp384
ssI31
(dp385
I41
(dp386
sI65
(dp387
sI7
g255
ssI32
(dp388
I40
(dp389
sI2
g221
sI45
(dp390
sI23
g349
ssI33
(dp391
I24
g353
sI41
(dp392
sI20
g330
sI65
(dp393
ssI34
(dp394
I128
(dp395
sI66
(dp396
sI164
(dp397
sI179
(dp398
sI6
g246
sI135
(dp399
sI168
(dp400
sI169
(dp401
sI140
(dp402
sI15
g299
sI83
(dp403
sI58
(dp404
sI156
(dp405
ssI35
(dp406
I64
(dp407
sI161
(dp408
sI68
(dp409
sI108
(dp410
sI81
(dp411
sI87
(dp412
sI89
(dp413
sI156
(dp414
ssI36
(dp415
I74
(dp416
sI67
(dp417
sI53
(dp418
sI62
(dp419
sI95
(dp420
ssI37
(dp421
I28
g377
sI46
(dp422
sI4
g236
sI13
g291
sI30
g384
ssI38
(dp423
I160
(dp424
sI178
(dp425
sI140
(dp426
sI77
(dp427
sI79
(dp428
sI113
(dp429
sI82
(dp430
sI83
(dp431
sI180
(dp432
sI86
(dp433
ssI39
(dp434
I96
(dp435
sI69
(dp436
sI76
(dp437
sI179
(dp438
sI52
(dp439
sI85
(dp440
sI148
(dp441
sI157
(dp442
ssI40
(dp443
I8
g258
sI32
g389
sI45
(dp444
sI93
(dp445
sI23
g350
ssI41
(dp446
I33
g392
sI31
g386
sI20
g331
sI65
(dp447
sI7
g254
ssI42
(dp448
I1
g217
sI18
g320
sI44
(dp449
sI29
g381
sI100
(dp450
ssI43
(dp451
I155
(dp452
sI196
(dp453
sI198
(dp454
sI88
(dp455
sI56
(dp456
sI164
(dp457
sI91
(dp458
sI92
(dp459
sI93
(dp460
ssI44
(dp461
I1
g216
sI18
g321
sI42
g449
sI29
g380
sI70
(dp462
ssI45
(dp463
I8
g260
sI32
g390
sI2
g222
sI40
g444
sI23
g351
ssI46
(dp464
I28
g378
sI4
g235
sI13
g292
sI30
g383
sI37
g422
ssI47
(dp465
I3
g226
sI196
(dp466
sI17
g313
sI9
g265
sI177
(dp467
sI49
(dp468
sI113
(dp469
sI22
g343
sI152
(dp470
sI186
(dp471
sI181
(dp472
ssI48
(dp473
I68
(dp474
sI140
(dp475
sI80
(dp476
sI81
(dp477
sI87
(dp478
sI89
(dp479
ssI49
(dp480
I3
g228
sI197
(dp481
sI9
g266
sI138
(dp482
sI47
g468
sI145
(dp483
sI22
g344
sI183
(dp484
sI58
(dp485
sI150
(dp486
ssI50
(dp487
I96
(dp488
sI128
(dp489
sI198
(dp490
sI70
(dp491
sI75
(dp492
sI76
(dp493
sI85
(dp494
sI152
(dp495
sI189
(dp496
ssI51
(dp497
I179
(dp498
sI200
(dp499
sI73
(dp500
sI146
(dp501
sI78
(dp502
sI82
(dp503
sI83
(dp504
sI86
(dp505
ssI52
(dp506
I96
(dp507
sI164
(dp508
sI69
(dp509
sI70
(dp510
sI39
g439
sI75
(dp511
sI85
(dp512
ssI53
(dp513
I36
g418
sI74
(dp514
sI14
g296
sI63
(dp515
sI62
(dp516
sI95
(dp517
ssI54
(dp518
I71
(dp519
sI73
(dp520
sI12
g287
sI16
g308
sI84
(dp521
sI21
g336
ssI55
(dp522
I97
(dp523
sI98
(dp524
sI99
(dp525
sI100
(dp526
sI198
(dp527
sI102
(dp528
sI175
(dp529
sI90
(dp530
sI94
(dp531
ssI56
(dp532
I128
(dp533
sI123
(dp534
sI72
(dp535
sI43
g456
sI110
(dp536
sI88
(dp537
sI91
(dp538
sI92
(dp539
sI93
(dp540
ssI57
(dp541
I97
(dp542
sI98
(dp543
sI99
(dp544
sI100
(dp545
sI102
(dp546
sI193
(dp547
sI139
(dp548
sI90
(dp549
sI94
(dp550
sI127
(dp551
ssI58
(dp552
I66
(dp553
sI196
(dp554
sI6
g251
sI137
(dp555
sI172
(dp556
sI34
g404
sI15
g304
sI176
(dp557
sI49
g485
sI185
(dp558
sI26
g367
sI143
(dp559
ssI59
(dp560
I194
(dp561
sI72
(dp562
sI178
(dp563
sI88
(dp564
sI91
(dp565
sI92
(dp566
sI93
(dp567
sI63
(dp568
ssI60
(dp569
I96
(dp570
sI193
(dp571
sI69
(dp572
sI70
(dp573
sI137
(dp574
sI75
(dp575
sI76
(dp576
sI110
(dp577
sI113
(dp578
sI146
(dp579
sI85
(dp580
sI123
(dp581
sI159
(dp582
sI181
(dp583
ssI61
(dp584
I97
(dp585
sI98
(dp586
sI99
(dp587
sI100
(dp588
sI148
(dp589
sI152
(dp590
sI90
(dp591
sI156
(dp592
sI94
(dp593
ssI62
(dp594
I67
(dp595
sI36
g419
sI74
(dp596
sI19
g326
sI53
g516
sI95
(dp597
ssI63
(dp598
I59
g568
sI179
(dp599
sI157
(dp600
sI178
(dp601
sI123
(dp602
sI53
g515
sI88
(dp603
sI91
(dp604
sI92
(dp605
sI93
(dp606
sI191
(dp607
ssI64
(dp608
I35
g407
sI68
(dp609
sI145
(dp610
sI80
(dp611
sI81
(dp612
sI87
(dp613
sI89
(dp614
ssI65
(dp615
I33
g393
sI7
g256
sI41
g447
sI20
g332
sI24
g354
sI31
g387
ssI66
(dp616
I193
(dp617
sI34
g396
sI163
(dp618
sI6
g247
sI139
(dp619
sI140
(dp620
sI77
(dp621
sI15
g300
sI177
(dp622
sI181
(dp623
sI26
g361
sI187
(dp624
sI58
g553
ssI67
(dp625
I36
g417
sI74
(dp626
sI14
g295
sI19
g325
sI25
g356
sI62
g595
sI95
(dp627
ssI68
(dp628
I64
g609
sI80
(dp629
sI194
(dp630
sI35
g409
sI48
g474
sI81
(dp631
sI155
(dp632
sI87
(dp633
sI89
(dp634
sI123
(dp635
sI159
(dp636
ssI69
(dp637
I96
(dp638
sI197
(dp639
sI70
(dp640
sI39
g436
sI75
(dp641
sI52
g509
sI85
(dp642
sI180
(dp643
sI60
g572
sI190
(dp644
ssI70
(dp645
I96
(dp646
sI69
g640
sI168
(dp647
sI76
(dp648
sI44
g462
sI50
g491
sI52
g510
sI150
(dp649
sI156
(dp650
sI60
g573
ssI71
(dp651
I73
(dp652
sI11
g283
sI12
g288
sI16
g309
sI84
(dp653
sI21
g337
sI54
g519
ssI72
(dp654
I160
(dp655
sI161
(dp656
sI59
g562
sI156
(dp657
sI88
(dp658
sI123
(dp659
sI87
(dp660
sI56
g535
sI91
(dp661
sI92
(dp662
sI93
(dp663
ssI73
(dp664
I71
g652
sI11
g281
sI12
g285
sI51
g500
sI84
(dp665
sI21
g334
sI54
g520
ssI74
(dp666
I67
g626
sI36
g416
sI14
g294
sI53
g514
sI25
g357
sI62
g596
sI95
(dp667
ssI75
(dp668
I96
(dp669
sI69
g641
sI135
(dp670
sI138
(dp671
sI76
(dp672
sI50
g492
sI52
g511
sI85
(dp673
sI60
g575
sI127
(dp674
ssI76
(dp675
I96
(dp676
sI70
g648
sI39
g437
sI75
g672
sI110
(dp677
sI50
g493
sI85
(dp678
sI151
(dp679
sI187
(dp680
sI60
g576
ssI77
(dp681
I128
(dp682
sI160
(dp683
sI66
g621
sI38
g427
sI199
(dp684
sI192
(dp685
sI78
(dp686
sI79
(dp687
sI82
(dp688
sI83
(dp689
sI86
(dp690
sI187
(dp691
ssI78
(dp692
I51
g502
sI130
(dp693
sI163
(dp694
sI5
g240
sI169
(dp695
sI138
(dp696
sI172
(dp697
sI77
g686
sI79
(dp698
sI82
(dp699
sI83
(dp700
sI86
(dp701
sI185
(dp702
ssI79
(dp703
I128
(dp704
sI196
(dp705
sI5
g241
sI38
g428
sI138
(dp706
sI77
g687
sI78
g698
sI82
(dp707
sI83
(dp708
sI86
(dp709
sI151
(dp710
sI188
(dp711
ssI80
(dp712
I64
g611
sI176
(dp713
sI68
g629
sI81
(dp714
sI145
(dp715
sI137
(dp716
sI192
(dp717
sI48
g476
sI17
g314
sI179
(dp718
sI87
(dp719
sI88
(dp720
sI89
(dp721
ssI81
(dp722
I64
g612
sI80
g714
sI35
g411
sI68
g631
sI8
g259
sI176
(dp723
sI140
(dp724
sI48
g477
sI113
(dp725
sI139
(dp726
sI150
(dp727
sI87
(dp728
sI89
(dp729
ssI82
(dp730
I192
(dp731
sI83
(dp732
sI5
g242
sI38
g430
sI140
(dp733
sI77
g688
sI78
g699
sI79
g707
sI146
(dp734
sI51
g503
sI86
(dp735
ssI83
(dp736
I34
g403
sI38
g431
sI104
(dp737
sI77
g689
sI78
g700
sI79
g708
sI82
g732
sI51
g504
sI86
(dp738
ssI84
(dp739
I71
g653
sI73
g665
sI11
g282
sI12
g286
sI16
g307
sI21
g335
sI54
g521
sI92
(dp740
ssI85
(dp741
I96
(dp742
sI69
g642
sI39
g440
sI75
g673
sI76
g678
sI50
g494
sI52
g512
sI117
(dp743
sI60
g580
sI157
(dp744
ssI86
(dp745
I83
g738
sI5
g243
sI38
g433
sI168
(dp746
sI137
(dp747
sI108
(dp748
sI77
g690
sI78
g701
sI79
g709
sI145
(dp749
sI82
g735
sI51
g505
sI89
(dp750
sI102
(dp751
ssI87
(dp752
I64
g613
sI80
g719
sI35
g412
sI68
g633
sI102
(dp753
sI81
g728
sI72
g660
sI48
g478
sI17
g316
sI164
(dp754
sI89
(dp755
sI191
(dp756
ssI88
(dp757
I91
(dp758
sI72
g658
sI43
g455
sI80
g720
sI168
(dp759
sI56
g537
sI127
(dp760
sI59
g564
sI92
(dp761
sI93
(dp762
sI63
g603
ssI89
(dp763
I64
g614
sI80
g721
sI35
g413
sI68
g634
sI81
g729
sI169
(dp764
sI48
g479
sI17
g317
sI86
g750
sI87
g755
sI137
(dp765
sI132
(dp766
sI157
(dp767
ssI90
(dp768
I97
(dp769
sI98
(dp770
sI99
(dp771
sI100
(dp772
sI110
(dp773
sI176
(dp774
sI190
(dp775
sI55
g530
sI57
g549
sI27
g371
sI61
g591
sI94
(dp776
ssI91
(dp777
I97
(dp778
sI197
(dp779
sI135
(dp780
sI72
g661
sI43
g458
sI175
(dp781
sI88
g758
sI56
g538
sI59
g565
sI92
(dp782
sI93
(dp783
sI199
(dp784
sI63
g604
ssI92
(dp785
I160
(dp786
sI91
g782
sI72
g662
sI43
g459
sI176
(dp787
sI88
g761
sI84
g740
sI56
g539
sI59
g566
sI200
(dp788
sI93
(dp789
sI63
g605
ssI93
(dp790
I91
g783
sI40
g445
sI43
g460
sI108
(dp791
sI72
g663
sI148
(dp792
sI56
g540
sI88
g762
sI59
g567
sI92
g789
sI159
(dp793
sI190
(dp794
sI63
g606
ssI94
(dp795
I97
(dp796
sI98
(dp797
sI99
(dp798
sI100
(dp799
sI169
(dp800
sI10
g278
sI140
(dp801
sI145
(dp802
sI55
g531
sI57
g550
sI90
g776
sI61
g593
ssI95
(dp803
I67
g627
sI36
g420
sI74
g667
sI14
g297
sI99
(dp804
sI19
g327
sI53
g517
sI25
g358
sI62
g597
ssI96
(dp805
I192
(dp806
sI69
g638
sI70
g646
sI39
g435
sI169
(dp807
sI75
g669
sI76
g676
sI135
(dp808
sI50
g488
sI52
g507
sI85
g742
sI60
g570
sI159
(dp809
ssI97
(dp810
I192
(dp811
sI161
(dp812
sI98
(dp813
sI99
(dp814
sI100
(dp815
sI105
(dp816
sI10
g272
sI108
(dp817
sI181
(dp818
sI150
(dp819
sI55
g523
sI137
(dp820
sI57
g542
sI90
g769
sI91
g778
sI61
g585
sI94
g796
ssI98
(dp821
I97
g813
sI99
(dp822
sI100
(dp823
sI10
g273
sI170
(dp824
sI181
(dp825
sI55
g524
sI57
g543
sI90
g770
sI27
g374
sI61
g586
sI94
g797
ssI99
(dp826
I97
g814
sI98
g822
sI100
(dp827
sI113
(dp828
sI179
(dp829
sI196
(dp830
sI55
g525
sI57
g544
sI90
g771
sI27
g372
sI61
g587
sI94
g798
sI95
g804
ssI100
(dp831
I97
g815
sI98
g823
sI99
g827
sI104
(dp832
sI10
g274
sI180
(dp833
sI200
(dp834
sI42
g450
sI185
(dp835
sI55
g526
sI57
g545
sI90
g772
sI27
g373
sI61
g588
sI94
g799
ssI101
(dp836
I144
(dp837
sI129
(dp838
sI118
(dp839
sI142
(dp840
ssI102
(dp841
I132
(dp842
sI87
g753
sI108
(dp843
sI145
(dp844
sI86
g751
sI55
g528
sI57
g546
sI26
g362
sI123
(dp845
ssI103
(dp846
I122
(dp847
sI147
(dp848
sI109
(dp849
sI149
(dp850
ssI104
(dp851
I128
(dp852
sI100
g832
sI137
(dp853
sI113
(dp854
sI146
(dp855
sI83
g737
ssI105
(dp856
I97
g816
sI5
g239
sI9
g264
sI178
(dp857
sI179
(dp858
sI182
(dp859
sI186
(dp860
ssI106
(dp861
I126
(dp862
sI134
(dp863
sI166
(dp864
sI158
(dp865
ssI107
(dp866
I131
(dp867
sI124
(dp868
sI141
(dp869
sI165
(dp870
ssI108
(dp871
I97
g817
sI35
g410
sI102
g843
sI17
g312
sI140
(dp872
sI145
(dp873
sI181
(dp874
sI86
g748
sI93
g791
ssI109
(dp875
I122
(dp876
sI147
(dp877
sI149
(dp878
sI103
g849
ssI110
(dp879
I194
(dp880
sI197
(dp881
sI198
(dp882
sI200
(dp883
sI10
g276
sI76
g677
sI56
g536
sI90
g773
sI60
g577
ssI111
(dp884
I184
(dp885
sI171
(dp886
sI116
(dp887
sI173
(dp888
ssI112
(dp889
I184
(dp890
sI154
(dp891
sI171
(dp892
sI173
(dp893
ssI113
(dp894
I130
(dp895
sI99
g828
sI38
g429
sI104
g854
sI137
(dp896
sI47
g469
sI81
g725
sI146
(dp897
sI60
g578
ssI114
(dp898
I153
(dp899
sI195
(dp900
sI174
(dp901
sI167
(dp902
ssI115
(dp903
I126
(dp904
sI134
(dp905
sI166
(dp906
sI158
(dp907
ssI116
(dp908
I184
(dp909
sI154
(dp910
sI171
(dp911
sI111
g887
ssI117
(dp912
I147
(dp913
sI180
(dp914
sI187
(dp915
sI85
g743
sI189
(dp916
ssI118
(dp917
I144
(dp918
sI129
(dp919
sI101
g839
sI142
(dp920
ssI119
(dp921
I162
(dp922
sI195
(dp923
sI125
(dp924
sI167
(dp925
ssI120
(dp926
I141
(dp927
sI124
(dp928
sI165
(dp929
sI133
(dp930
ssI121
(dp931
I184
(dp932
sI154
(dp933
sI171
(dp934
sI173
(dp935
ssI122
(dp936
I149
(dp937
sI147
(dp938
sI109
g876
sI103
g847
ssI123
(dp939
I3
g231
sI132
(dp940
sI102
g845
sI6
g249
sI72
g659
sI9
g269
sI140
(dp941
sI15
g303
sI145
(dp942
sI56
g534
sI68
g635
sI60
g581
sI63
g602
ssI124
(dp943
I120
g928
sI107
g868
sI133
(dp944
sI165
(dp945
ssI125
(dp946
I167
(dp947
sI174
(dp948
sI195
(dp949
sI119
g924
ssI126
(dp950
I106
g862
sI115
g904
sI158
(dp951
sI166
(dp952
ssI127
(dp953
I198
(dp954
sI199
(dp955
sI200
(dp956
sI75
g674
sI22
g347
sI88
g760
sI57
g551
sI190
(dp957
ssI128
(dp958
I130
(dp959
sI50
g489
sI104
g852
sI137
(dp960
sI34
g395
sI77
g682
sI146
(dp961
sI9
g262
sI56
g533
sI79
g704
ssI129
(dp962
I144
(dp963
sI101
g838
sI118
g919
sI142
(dp964
ssI130
(dp965
I128
g959
sI5
g238
sI137
(dp966
sI78
g693
sI113
g895
sI146
(dp967
ssI131
(dp968
I107
g867
sI141
(dp969
sI165
(dp970
ssI132
(dp971
I145
(dp972
sI123
g940
sI140
(dp973
sI102
g842
sI89
g766
ssI133
(dp974
I120
g930
sI124
g944
sI141
(dp975
sI165
(dp976
ssI134
(dp977
I106
g863
sI115
g905
sI158
(dp978
sI166
(dp979
sI183
(dp980
ssI135
(dp981
I96
g808
sI34
g399
sI91
g780
sI164
(dp982
sI168
(dp983
sI75
g670
sI181
(dp984
sI187
(dp985
sI189
(dp986
ssI136
(dp987
I153
(dp988
sI162
(dp989
sI195
(dp990
sI174
(dp991
sI167
(dp992
ssI137
(dp993
I128
g960
sI97
g820
sI130
g966
sI104
g853
sI80
g716
sI113
g896
sI146
(dp994
sI86
g747
sI89
g765
sI58
g555
sI60
g574
ssI138
(dp995
I49
g482
sI75
g671
sI78
g696
sI79
g706
sI177
(dp996
sI179
(dp997
sI182
(dp998
sI183
(dp999
sI186
(dp1000
ssI139
(dp1001
I66
g619
sI196
(dp1002
sI169
(dp1003
sI176
(dp1004
sI81
g726
sI185
(dp1005
sI152
(dp1006
sI57
g548
ssI140
(dp1007
I193
(dp1008
sI34
g402
sI132
g973
sI38
g426
sI81
g724
sI108
g872
sI66
g620
sI48
g475
sI145
(dp1009
sI82
g733
sI22
g341
sI123
g941
sI94
g801
ssI141
(dp1010
I120
g927
sI107
g869
sI131
g969
sI133
g975
sI165
(dp1011
ssI142
(dp1012
I144
(dp1013
sI129
g964
sI200
(dp1014
sI101
g840
sI118
g920
ssI143
(dp1015
I192
(dp1016
sI193
(dp1017
sI188
(dp1018
sI58
g559
sI156
(dp1019
sI191
(dp1020
ssI144
(dp1021
I129
g963
sI170
(dp1022
sI101
g837
sI118
g918
sI142
g1013
ssI145
(dp1023
I64
g610
sI132
g972
sI102
g844
sI108
g873
sI140
g1009
sI80
g715
sI49
g483
sI86
g749
sI123
g942
sI94
g802
ssI146
(dp1024
I128
g961
sI130
g967
sI104
g855
sI137
g994
sI113
g897
sI82
g734
sI51
g501
sI22
g345
sI60
g579
ssI147
(dp1025
I149
(dp1026
sI122
g938
sI117
g913
sI109
g877
sI103
g848
ssI148
(dp1027
I39
g441
sI168
(dp1028
sI93
g792
sI61
g589
sI180
(dp1029
sI181
(dp1030
sI187
(dp1031
sI189
(dp1032
ssI149
(dp1033
I122
g937
sI147
g1026
sI109
g878
sI158
(dp1034
sI103
g850
ssI150
(dp1035
I97
g819
sI196
(dp1036
sI70
g649
sI81
g727
sI170
(dp1037
sI175
(dp1038
sI176
(dp1039
sI49
g486
sI185
(dp1040
ssI151
(dp1041
I9
g268
sI76
g679
sI173
(dp1042
sI15
g301
sI178
(dp1043
sI182
(dp1044
sI183
(dp1045
sI186
(dp1046
sI79
g710
ssI152
(dp1047
I196
(dp1048
sI169
(dp1049
sI170
(dp1050
sI139
g1006
sI175
(dp1051
sI50
g495
sI185
(dp1052
sI47
g470
sI61
g590
ssI153
(dp1053
I162
(dp1054
sI163
(dp1055
sI136
g988
sI174
(dp1056
sI114
g899
sI195
(dp1057
ssI154
(dp1058
I171
(dp1059
sI173
(dp1060
sI112
g891
sI116
g910
sI184
(dp1061
sI121
g933
ssI155
(dp1062
I194
(dp1063
sI68
g632
sI197
(dp1064
sI198
(dp1065
sI199
(dp1066
sI200
(dp1067
sI10
g277
sI43
g452
sI190
(dp1068
ssI156
(dp1069
I192
(dp1070
sI193
(dp1071
sI34
g405
sI35
g414
sI70
g650
sI72
g657
sI172
(dp1072
sI143
g1019
sI17
g318
sI188
(dp1073
sI61
g592
sI191
(dp1074
ssI157
(dp1075
I194
(dp1076
sI197
(dp1077
sI198
(dp1078
sI199
(dp1079
sI200
(dp1080
sI39
g442
sI85
g744
sI89
g767
sI190
(dp1081
sI63
g600
ssI158
(dp1082
I134
g978
sI166
(dp1083
sI106
g865
sI115
g907
sI149
g1034
sI126
g951
ssI159
(dp1084
I192
(dp1085
sI193
(dp1086
sI163
(dp1087
sI68
g636
sI5
g244
sI60
g582
sI172
(dp1088
sI96
g809
sI26
g368
sI188
(dp1089
sI93
g793
sI191
(dp1090
ssI160
(dp1091
I196
(dp1092
sI38
g424
sI72
g655
sI169
(dp1093
sI170
(dp1094
sI77
g683
sI175
(dp1095
sI176
(dp1096
sI185
(dp1097
sI92
g786
sI10
g271
ssI161
(dp1098
I97
g812
sI194
(dp1099
sI35
g408
sI197
(dp1100
sI198
(dp1101
sI199
(dp1102
sI200
(dp1103
sI72
g656
sI190
(dp1104
ssI162
(dp1105
I195
(dp1106
sI167
(dp1107
sI136
g989
sI174
(dp1108
sI119
g922
sI153
g1054
ssI163
(dp1109
I192
(dp1110
sI193
(dp1111
sI66
g618
sI78
g694
sI153
g1055
sI159
g1087
sI188
(dp1112
sI191
(dp1113
ssI164
(dp1114
I34
g397
sI135
g982
sI168
(dp1115
sI43
g457
sI180
(dp1116
sI181
(dp1117
sI87
g754
sI52
g508
sI187
(dp1118
sI189
(dp1119
ssI165
(dp1120
I131
g970
sI133
g976
sI107
g870
sI141
g1011
sI120
g929
sI124
g945
ssI166
(dp1121
I134
g979
sI106
g864
sI177
(dp1122
sI115
g906
sI158
g1083
sI126
g952
ssI167
(dp1123
I162
g1107
sI195
(dp1124
sI136
g992
sI174
(dp1125
sI114
g902
sI119
g925
sI125
g947
ssI168
(dp1126
I34
g400
sI164
g1115
sI70
g647
sI135
g983
sI180
(dp1127
sI181
(dp1128
sI86
g746
sI88
g759
sI148
g1028
sI187
(dp1129
sI189
(dp1130
ssI169
(dp1131
I160
g1093
sI96
g807
sI34
g401
sI196
(dp1132
sI170
(dp1133
sI139
g1003
sI78
g695
sI175
(dp1134
sI89
g764
sI152
g1049
sI185
(dp1135
sI94
g800
ssI170
(dp1136
I160
g1094
sI176
(dp1137
sI98
g824
sI196
(dp1138
sI169
g1133
sI144
g1022
sI150
g1037
sI152
g1050
ssI171
(dp1139
I173
(dp1140
sI111
g886
sI112
g892
sI116
g911
sI184
(dp1141
sI121
g934
sI154
g1059
ssI172
(dp1142
I192
(dp1143
sI193
(dp1144
sI188
(dp1145
sI191
(dp1146
sI78
g697
sI58
g556
sI187
(dp1147
sI156
g1072
sI159
g1088
ssI173
(dp1148
I171
g1140
sI111
g888
sI112
g893
sI151
g1042
sI184
(dp1149
sI121
g935
sI154
g1060
ssI174
(dp1150
I162
g1108
sI195
(dp1151
sI167
g1125
sI136
g991
sI114
g901
sI153
g1056
sI125
g948
ssI175
(dp1152
I160
g1095
sI196
(dp1153
sI169
g1134
sI176
(dp1154
sI150
g1038
sI55
g529
sI152
g1051
sI185
(dp1155
sI91
g781
ssI176
(dp1156
I160
g1096
sI3
g227
sI196
(dp1157
sI170
g1137
sI139
g1004
sI175
g1154
sI80
g713
sI81
g723
sI150
g1039
sI185
(dp1158
sI58
g557
sI92
g787
sI90
g774
ssI177
(dp1159
I66
g622
sI166
g1122
sI138
g996
sI47
g467
sI17
g315
sI178
(dp1160
sI179
(dp1161
sI182
(dp1162
sI183
(dp1163
sI186
(dp1164
ssI178
(dp1165
I22
g342
sI38
g425
sI105
g857
sI151
g1043
sI177
g1160
sI179
(dp1166
sI182
(dp1167
sI183
(dp1168
sI186
(dp1169
sI59
g563
sI26
g364
sI63
g601
ssI179
(dp1170
I34
g398
sI3
g229
sI39
g438
sI105
g858
sI138
g997
sI99
g829
sI80
g718
sI177
g1161
sI178
g1166
sI51
g498
sI182
(dp1171
sI183
(dp1172
sI186
(dp1173
sI26
g365
sI63
g599
ssI180
(dp1174
I164
g1116
sI69
g643
sI38
g432
sI168
g1127
sI148
g1029
sI117
g914
sI100
g833
sI187
(dp1175
sI188
(dp1176
sI189
(dp1177
sI181
(dp1178
ssI181
(dp1179
I97
g818
sI66
g623
sI164
g1117
sI135
g984
sI168
g1128
sI108
g874
sI98
g825
sI47
g472
sI148
g1030
sI180
g1178
sI187
(dp1180
sI60
g583
sI189
(dp1181
ssI182
(dp1182
I105
g859
sI138
g998
sI183
(dp1183
sI177
g1162
sI178
g1167
sI179
g1171
sI22
g346
sI151
g1044
sI186
(dp1184
sI26
g366
ssI183
(dp1185
I134
g980
sI49
g484
sI138
g999
sI177
g1163
sI178
g1168
sI179
g1172
sI182
g1183
sI151
g1045
sI186
(dp1186
ssI184
(dp1187
I192
(dp1188
sI171
g1141
sI173
g1149
sI111
g885
sI112
g890
sI116
g909
sI121
g932
sI154
g1061
ssI185
(dp1189
I160
g1097
sI196
(dp1190
sI169
g1135
sI139
g1005
sI78
g702
sI175
g1155
sI176
g1158
sI150
g1040
sI152
g1052
sI100
g835
sI58
g558
sI27
g370
ssI186
(dp1191
I105
g860
sI138
g1000
sI183
g1186
sI47
g471
sI177
g1164
sI178
g1169
sI179
g1173
sI182
g1184
sI151
g1046
sI189
(dp1192
ssI187
(dp1193
I66
g624
sI164
g1118
sI135
g985
sI168
g1129
sI76
g680
sI172
g1147
sI77
g691
sI148
g1031
sI117
g915
sI180
g1175
sI189
(dp1194
sI181
g1180
ssI188
(dp1195
I192
(dp1196
sI193
(dp1197
sI163
g1112
sI6
g250
sI79
g711
sI172
g1145
sI143
g1018
sI180
g1176
sI191
(dp1198
sI156
g1073
sI159
g1089
ssI189
(dp1199
I164
g1119
sI135
g986
sI168
g1130
sI50
g496
sI180
g1177
sI117
g916
sI148
g1032
sI186
g1192
sI187
g1194
sI181
g1181
ssI190
(dp1200
I161
g1104
sI194
(dp1201
sI197
(dp1202
sI198
(dp1203
sI199
(dp1204
sI200
(dp1205
sI93
g794
sI90
g775
sI155
g1068
sI157
g1081
sI69
g644
sI127
g957
ssI191
(dp1206
I192
(dp1207
sI193
(dp1208
sI163
g1113
sI197
(dp1209
sI156
g1074
sI172
g1146
sI63
g607
sI143
g1020
sI87
g756
sI15
g305
sI188
g1198
sI159
g1090
ssI192
(dp1210
I96
g806
sI193
(dp1211
sI163
g1110
sI97
g811
sI188
g1196
sI172
g1143
sI77
g685
sI143
g1016
sI80
g717
sI17
g311
sI82
g731
sI22
g339
sI184
g1188
sI26
g360
sI191
g1207
sI156
g1070
sI159
g1085
ssI193
(dp1212
I192
g1211
sI66
g617
sI163
g1111
sI140
g1008
sI172
g1144
sI143
g1017
sI188
g1197
sI9
g263
sI57
g547
sI191
g1208
sI156
g1071
sI60
g571
sI159
g1086
ssI194
(dp1213
I161
g1099
sI59
g561
sI68
g630
sI197
(dp1214
sI198
(dp1215
sI199
(dp1216
sI200
(dp1217
sI110
g880
sI155
g1063
sI157
g1076
sI190
g1201
ssI195
(dp1218
I162
g1106
sI167
g1124
sI136
g990
sI199
(dp1219
sI174
g1151
sI114
g900
sI119
g923
sI153
g1057
sI125
g949
ssI196
(dp1220
I160
g1092
sI43
g453
sI22
g340
sI169
g1132
sI170
g1138
sI139
g1002
sI175
g1153
sI176
g1157
sI99
g830
sI79
g705
sI150
g1036
sI152
g1048
sI185
g1190
sI58
g554
sI47
g466
ssI197
(dp1221
I161
g1100
sI194
g1214
sI91
g779
sI69
g639
sI198
(dp1222
sI199
(dp1223
sI200
(dp1224
sI10
g275
sI110
g881
sI49
g481
sI155
g1064
sI157
g1077
sI190
g1202
sI191
g1209
ssI198
(dp1225
I161
g1101
sI194
g1215
sI197
g1222
sI199
(dp1226
sI200
(dp1227
sI43
g454
sI110
g882
sI50
g490
sI55
g527
sI155
g1065
sI157
g1078
sI190
g1203
sI127
g954
ssI199
(dp1228
I161
g1102
sI194
g1216
sI195
g1219
sI197
g1223
sI198
g1226
sI200
(dp1229
sI77
g684
sI91
g784
sI26
g363
sI155
g1066
sI157
g1079
sI190
g1204
sI127
g955
ssI200
(dp1230
I161
g1103
sI194
g1217
sI100
g834
sI197
g1224
sI198
g1227
sI199
g1229
sI142
g1014
sI51
g499
sI110
g883
sI155
g1067
sI92
g788
sI157
g1080
sI190
g1205
sI127
g956
sssS'graph'
p1231
(dp1232
sS'adjlist_dict_factory'
p1233
g210
sS'adj'
p1234
g213
sba(dp1235
I1
c__builtin__
set
p1236
((lp1237
I1
aI2
aI3
aI4
aI5
aI6
aI7
aI8
aI9
aI10
aI11
aI12
aI13
aI14
aI15
aI16
aI17
aI18
aI19
aI20
aI21
aI22
aI23
aI24
aI25
aI26
aI27
aI28
aI29
aI30
aI31
aI32
aI33
aI34
aI35
aI36
aI37
aI38
aI39
aI40
aI41
aI42
aI43
aI44
aI45
aI46
aI47
aI48
aI49
aI50
aI51
aI52
aI53
aI54
aI55
aI56
aI57
aI58
aI59
aI60
aI61
aI62
aI63
aI64
aI65
aI66
aI67
aI68
aI69
aI70
aI71
aI72
aI73
aI74
aI75
aI76
aI77
aI78
aI79
aI80
aI81
aI82
aI83
aI84
aI85
aI86
aI87
aI88
aI89
aI90
aI91
aI92
aI93
aI94
aI95
aI96
aI97
aI98
aI99
aI100
atp1238
Rp1239
sI2
g1236
((lp1240
I101
aI102
aI103
aI104
aI105
aI106
aI107
aI108
aI109
aI110
aI111
aI112
aI113
aI114
aI115
aI116
aI117
aI118
aI119
aI120
aI121
aI122
aI123
aI124
aI125
aI126
aI127
aI128
aI129
aI130
aI131
aI132
aI133
aI134
aI135
aI136
aI137
aI138
aI139
aI140
aI141
aI142
aI143
aI144
aI145
aI146
aI147
aI148
aI149
aI150
aI151
aI152
aI153
aI154
aI155
aI156
aI157
aI158
aI159
aI160
aI161
aI162
aI163
aI164
aI165
aI166
aI167
aI168
aI169
aI170
aI171
aI172
aI173
aI174
aI175
aI176
aI177
aI178
aI179
aI180
aI181
aI182
aI183
aI184
aI185
aI186
aI187
aI188
aI189
aI190
aI191
aI192
aI193
aI194
aI195
aI196
aI197
aI198
aI199
aI200
atp1241
Rp1242
sa(dp1243
I1
g1236
((lp1244
I18
aI42
aI44
aI29
atp1245
Rp1246
sI2
g1236
((lp1247
I8
aI32
aI45
aI23
atp1248
Rp1249
sI3
g1236
((lp1250
I9
aI49
aI22
aI47
atp1251
Rp1252
sI4
g1236
((lp1253
I28
aI13
aI46
aI37
atp1254
Rp1255
sI5
g1236
((lp1256
I82
aI86
aI78
aI79
atp1257
Rp1258
sI6
g1236
((lp1259
I26
aI58
aI66
aI34
atp1260
Rp1261
sI7
g1236
((lp1262
I24
aI41
aI65
aI31
atp1263
Rp1264
sI8
g1236
((lp1265
I40
aI81
aI2
aI45
atp1266
Rp1267
sI9
g1236
((lp1268
I49
aI3
aI22
aI47
atp1269
Rp1270
sI10
g1236
((lp1271
I97
aI98
aI100
aI94
atp1272
Rp1273
sI11
g1236
((lp1274
I16
aI73
aI84
aI71
atp1275
Rp1276
sI12
g1236
((lp1277
I73
aI84
aI54
aI71
atp1278
Rp1279
sI13
g1236
((lp1280
I46
aI4
aI37
aI30
atp1281
Rp1282
sI14
g1236
((lp1283
I74
aI67
aI53
aI95
atp1284
Rp1285
sI15
g1236
((lp1286
I26
aI58
aI66
aI34
atp1287
Rp1288
sI16
g1236
((lp1289
I11
aI84
aI54
aI71
atp1290
Rp1291
sI17
g1236
((lp1292
I80
aI89
aI87
aI47
atp1293
Rp1294
sI18
g1236
((lp1295
I1
aI42
aI44
aI29
atp1296
Rp1297
sI19
g1236
((lp1298
I25
aI67
aI62
aI95
atp1299
Rp1300
sI20
g1236
((lp1301
I24
aI33
aI65
aI41
atp1302
Rp1303
sI21
g1236
((lp1304
I73
aI84
aI54
aI71
atp1305
Rp1306
sI22
g1236
((lp1307
I9
aI3
aI49
aI47
atp1308
Rp1309
sI23
g1236
((lp1310
I32
aI40
aI2
aI45
atp1311
Rp1312
sI24
g1236
((lp1313
I33
aI20
aI65
aI7
atp1314
Rp1315
sI25
g1236
((lp1316
I67
aI19
aI74
aI95
atp1317
Rp1318
sI26
g1236
((lp1319
I58
aI66
aI6
aI15
atp1320
Rp1321
sI27
g1236
((lp1322
I90
aI99
aI100
aI98
atp1323
Rp1324
sI28
g1236
((lp1325
I46
aI4
aI37
aI30
atp1326
Rp1327
sI29
g1236
((lp1328
I1
aI18
aI44
aI42
atp1329
Rp1330
sI30
g1236
((lp1331
I28
aI13
aI46
aI37
atp1332
Rp1333
sI31
g1236
((lp1334
I41
aI65
aI7
atp1335
Rp1336
sI32
g1236
((lp1337
I40
aI2
aI45
aI23
atp1338
Rp1339
sI33
g1236
((lp1340
I24
aI41
aI20
aI65
atp1341
Rp1342
sI34
g1236
((lp1343
I58
aI83
aI66
aI6
aI15
atp1344
Rp1345
sI35
g1236
((lp1346
I64
aI81
aI68
aI89
aI87
atp1347
Rp1348
sI36
g1236
((lp1349
I74
aI67
aI53
aI62
aI95
atp1350
Rp1351
sI37
g1236
((lp1352
I28
aI46
aI4
aI13
aI30
atp1353
Rp1354
sI38
g1236
((lp1355
I82
aI83
aI77
aI86
aI79
atp1356
Rp1357
sI39
g1236
((lp1358
I96
aI76
aI52
aI69
aI85
atp1359
Rp1360
sI40
g1236
((lp1361
I8
aI32
aI45
aI93
aI23
atp1362
Rp1363
sI41
g1236
((lp1364
I33
aI31
aI20
aI65
aI7
atp1365
Rp1366
sI42
g1236
((lp1367
I1
aI18
aI44
aI29
aI100
atp1368
Rp1369
sI43
g1236
((lp1370
I56
aI88
aI91
aI92
aI93
atp1371
Rp1372
sI44
g1236
((lp1373
I1
aI18
aI42
aI29
aI70
atp1374
Rp1375
sI45
g1236
((lp1376
I8
aI32
aI2
aI40
aI23
atp1377
Rp1378
sI46
g1236
((lp1379
I28
aI4
aI13
aI30
aI37
atp1380
Rp1381
sI47
g1236
((lp1382
I9
aI3
aI49
aI22
aI17
atp1383
Rp1384
sI48
g1236
((lp1385
I80
aI81
aI68
aI89
aI87
atp1386
Rp1387
sI49
g1236
((lp1388
I9
aI58
aI3
aI22
aI47
atp1389
Rp1390
sI50
g1236
((lp1391
I96
aI75
aI76
aI85
aI70
atp1392
Rp1393
sI51
g1236
((lp1394
I73
aI82
aI83
aI86
aI78
atp1395
Rp1396
sI52
g1236
((lp1397
I96
aI69
aI70
aI39
aI75
aI85
atp1398
Rp1399
sI53
g1236
((lp1400
I36
aI74
aI14
aI63
aI62
aI95
atp1401
Rp1402
sI54
g1236
((lp1403
I71
aI73
aI12
aI16
aI84
aI21
atp1404
Rp1405
sI55
g1236
((lp1406
I97
aI98
aI99
aI100
aI90
aI94
atp1407
Rp1408
sI56
g1236
((lp1409
I72
aI43
aI88
aI91
aI92
aI93
atp1410
Rp1411
sI57
g1236
((lp1412
I97
aI98
aI99
aI100
aI90
aI94
atp1413
Rp1414
sI58
g1236
((lp1415
I66
aI6
aI34
aI15
aI49
aI26
atp1416
Rp1417
sI59
g1236
((lp1418
I72
aI88
aI91
aI92
aI93
aI63
atp1419
Rp1420
sI60
g1236
((lp1421
I96
aI69
aI70
aI75
aI76
aI85
atp1422
Rp1423
sI61
g1236
((lp1424
I97
aI98
aI99
aI100
aI90
aI94
atp1425
Rp1426
sI62
g1236
((lp1427
I67
aI36
aI74
aI19
aI53
aI95
atp1428
Rp1429
sI63
g1236
((lp1430
I59
aI53
aI88
aI91
aI92
aI93
atp1431
Rp1432
sI64
g1236
((lp1433
I35
aI68
aI80
aI81
aI87
aI89
atp1434
Rp1435
sI65
g1236
((lp1436
I33
aI7
aI41
aI20
aI24
aI31
atp1437
Rp1438
sI66
g1236
((lp1439
I34
aI6
aI77
aI15
aI26
aI58
atp1440
Rp1441
sI67
g1236
((lp1442
I36
aI74
aI14
aI19
aI25
aI62
aI95
atp1443
Rp1444
sI68
g1236
((lp1445
I64
aI80
aI35
aI48
aI81
aI87
aI89
atp1446
Rp1447
sI69
g1236
((lp1448
I96
aI70
aI39
aI75
aI52
aI85
aI60
atp1449
Rp1450
sI70
g1236
((lp1451
I96
aI69
aI44
aI76
aI50
aI52
aI60
atp1452
Rp1453
sI71
g1236
((lp1454
I73
aI11
aI12
aI16
aI84
aI21
aI54
atp1455
Rp1456
sI72
g1236
((lp1457
I59
aI88
aI87
aI56
aI91
aI92
aI93
atp1458
Rp1459
sI73
g1236
((lp1460
I71
aI11
aI12
aI51
aI84
aI21
aI54
atp1461
Rp1462
sI74
g1236
((lp1463
I67
aI36
aI14
aI53
aI25
aI62
aI95
atp1464
Rp1465
sI75
g1236
((lp1466
I96
aI69
aI76
aI50
aI52
aI85
aI60
atp1467
Rp1468
sI76
g1236
((lp1469
I96
aI70
aI39
aI75
aI50
aI85
aI60
atp1470
Rp1471
sI77
g1236
((lp1472
I66
aI38
aI78
aI79
aI82
aI83
aI86
atp1473
Rp1474
sI78
g1236
((lp1475
I51
aI5
aI77
aI79
aI82
aI83
aI86
atp1476
Rp1477
sI79
g1236
((lp1478
I5
aI38
aI77
aI78
aI82
aI83
aI86
atp1479
Rp1480
sI80
g1236
((lp1481
I64
aI68
aI81
aI48
aI17
aI87
aI88
aI89
atp1482
Rp1483
sI81
g1236
((lp1484
I64
aI80
aI35
aI68
aI8
aI48
aI87
aI89
atp1485
Rp1486
sI82
g1236
((lp1487
I83
aI5
aI38
aI77
aI78
aI79
aI51
aI86
atp1488
Rp1489
sI83
g1236
((lp1490
I34
aI38
aI77
aI78
aI79
aI82
aI51
aI86
atp1491
Rp1492
sI84
g1236
((lp1493
I71
aI73
aI11
aI12
aI16
aI21
aI54
aI92
atp1494
Rp1495
sI85
g1236
((lp1496
I96
aI69
aI39
aI75
aI76
aI50
aI52
aI60
atp1497
Rp1498
sI86
g1236
((lp1499
I83
aI5
aI38
aI77
aI78
aI79
aI82
aI51
aI89
atp1500
Rp1501
sI87
g1236
((lp1502
I64
aI80
aI35
aI68
aI81
aI72
aI48
aI17
aI89
atp1503
Rp1504
sI88
g1236
((lp1505
I91
aI72
aI43
aI80
aI56
aI59
aI92
aI93
aI63
atp1506
Rp1507
sI89
g1236
((lp1508
I64
aI80
aI35
aI68
aI81
aI48
aI17
aI86
aI87
atp1509
Rp1510
sI90
g1236
((lp1511
I97
aI98
aI99
aI100
aI55
aI57
aI27
aI61
aI94
atp1512
Rp1513
sI91
g1236
((lp1514
I97
aI72
aI43
aI88
aI56
aI59
aI92
aI93
aI63
atp1515
Rp1516
sI92
g1236
((lp1517
I91
aI72
aI43
aI88
aI84
aI56
aI59
aI93
aI63
atp1518
Rp1519
sI93
g1236
((lp1520
I91
aI40
aI43
aI72
aI56
aI88
aI59
aI92
aI63
atp1521
Rp1522
sI94
g1236
((lp1523
I97
aI98
aI99
aI100
aI10
aI55
aI57
aI90
aI61
atp1524
Rp1525
sI95
g1236
((lp1526
I67
aI36
aI74
aI14
aI99
aI19
aI53
aI25
aI62
atp1527
Rp1528
sI96
g1236
((lp1529
I69
aI70
aI39
aI75
aI76
aI50
aI52
aI85
aI60
atp1530
Rp1531
sI97
g1236
((lp1532
I98
aI99
aI100
aI10
aI55
aI57
aI90
aI91
aI61
aI94
atp1533
Rp1534
sI98
g1236
((lp1535
I97
aI99
aI100
aI10
aI55
aI57
aI90
aI27
aI61
aI94
atp1536
Rp1537
sI99
g1236
((lp1538
I97
aI98
aI100
aI55
aI57
aI90
aI27
aI61
aI94
aI95
atp1539
Rp1540
sI100
g1236
((lp1541
I97
aI98
aI99
aI10
aI42
aI55
aI57
aI90
aI27
aI61
aI94
atp1542
Rp1543
sI101
g1236
((lp1544
I144
aI129
aI142
aI118
atp1545
Rp1546
sI102
g1236
((lp1547
I132
aI123
aI108
aI145
atp1548
Rp1549
sI103
g1236
((lp1550
I122
aI147
aI109
aI149
atp1551
Rp1552
sI104
g1236
((lp1553
I128
aI113
aI146
aI137
atp1554
Rp1555
sI105
g1236
((lp1556
I178
aI179
aI186
aI182
atp1557
Rp1558
sI106
g1236
((lp1559
I166
aI134
aI126
aI158
atp1560
Rp1561
sI107
g1236
((lp1562
I131
aI124
aI141
aI165
atp1563
Rp1564
sI108
g1236
((lp1565
I145
aI140
aI181
aI102
atp1566
Rp1567
sI109
g1236
((lp1568
I122
aI147
aI149
aI103
atp1569
Rp1570
sI110
g1236
((lp1571
I200
aI194
aI197
aI198
atp1572
Rp1573
sI111
g1236
((lp1574
I184
aI171
aI116
aI173
atp1575
Rp1576
sI112
g1236
((lp1577
I184
aI154
aI171
aI173
atp1578
Rp1579
sI113
g1236
((lp1580
I104
aI137
aI130
aI146
atp1581
Rp1582
sI114
g1236
((lp1583
I153
aI195
aI174
aI167
atp1584
Rp1585
sI115
g1236
((lp1586
I166
aI134
aI126
aI158
atp1587
Rp1588
sI116
g1236
((lp1589
I184
aI154
aI171
aI111
atp1590
Rp1591
sI117
g1236
((lp1592
I147
aI180
aI187
aI189
atp1593
Rp1594
sI118
g1236
((lp1595
I144
aI129
aI101
aI142
atp1596
Rp1597
sI119
g1236
((lp1598
I162
aI195
aI125
aI167
atp1599
Rp1600
sI120
g1236
((lp1601
I165
aI124
aI133
aI141
atp1602
Rp1603
sI121
g1236
((lp1604
I184
aI154
aI171
aI173
atp1605
Rp1606
sI122
g1236
((lp1607
I149
aI147
aI109
aI103
atp1608
Rp1609
sI123
g1236
((lp1610
I140
aI132
aI102
aI145
atp1611
Rp1612
sI124
g1236
((lp1613
I120
aI107
aI133
aI165
atp1614
Rp1615
sI125
g1236
((lp1616
I167
aI195
aI174
aI119
atp1617
Rp1618
sI126
g1236
((lp1619
I106
aI115
aI166
aI158
atp1620
Rp1621
sI127
g1236
((lp1622
I200
aI198
aI190
aI199
atp1623
Rp1624
sI128
g1236
((lp1625
I104
aI137
aI130
aI146
atp1626
Rp1627
sI129
g1236
((lp1628
I144
aI101
aI118
aI142
atp1629
Rp1630
sI130
g1236
((lp1631
I128
aI113
aI146
aI137
atp1632
Rp1633
sI131
g1236
((lp1634
I107
aI141
aI165
atp1635
Rp1636
sI132
g1236
((lp1637
I145
aI123
aI140
aI102
atp1638
Rp1639
sI133
g1236
((lp1640
I120
aI124
aI141
aI165
atp1641
Rp1642
sI134
g1236
((lp1643
I106
aI115
aI166
aI158
aI183
atp1644
Rp1645
sI135
g1236
((lp1646
I168
aI187
aI164
aI181
aI189
atp1647
Rp1648
sI136
g1236
((lp1649
I153
aI162
aI195
aI174
aI167
atp1650
Rp1651
sI137
g1236
((lp1652
I104
aI113
aI128
aI130
aI146
atp1653
Rp1654
sI138
g1236
((lp1655
I177
aI186
aI179
aI182
aI183
atp1656
Rp1657
sI139
g1236
((lp1658
I152
aI169
aI176
aI196
aI185
atp1659
Rp1660
sI140
g1236
((lp1661
I132
aI193
aI123
aI108
aI145
atp1662
Rp1663
sI141
g1236
((lp1664
I120
aI107
aI131
aI133
aI165
atp1665
Rp1666
sI142
g1236
((lp1667
I144
aI129
aI200
aI101
aI118
atp1668
Rp1669
sI143
g1236
((lp1670
I192
aI188
aI193
aI156
aI191
atp1671
Rp1672
sI144
g1236
((lp1673
I129
aI170
aI101
aI118
aI142
atp1674
Rp1675
sI145
g1236
((lp1676
I132
aI140
aI123
aI108
aI102
atp1677
Rp1678
sI146
g1236
((lp1679
I104
aI113
aI128
aI130
aI137
atp1680
Rp1681
sI147
g1236
((lp1682
I149
aI122
aI117
aI109
aI103
atp1683
Rp1684
sI148
g1236
((lp1685
I168
aI187
aI180
aI181
aI189
atp1686
Rp1687
sI149
g1236
((lp1688
I122
aI147
aI109
aI158
aI103
atp1689
Rp1690
sI150
g1236
((lp1691
I176
aI185
aI170
aI196
aI175
atp1692
Rp1693
sI151
g1236
((lp1694
I178
aI186
aI173
aI182
aI183
atp1695
Rp1696
sI152
g1236
((lp1697
I196
aI169
aI170
aI139
aI175
aI185
atp1698
Rp1699
sI153
g1236
((lp1700
I162
aI163
aI136
aI174
aI114
aI195
atp1701
Rp1702
sI154
g1236
((lp1703
I171
aI173
aI112
aI116
aI184
aI121
atp1704
Rp1705
sI155
g1236
((lp1706
I194
aI197
aI198
aI199
aI200
aI190
atp1707
Rp1708
sI156
g1236
((lp1709
I192
aI193
aI172
aI143
aI188
aI191
atp1710
Rp1711
sI157
g1236
((lp1712
I194
aI197
aI198
aI199
aI200
aI190
atp1713
Rp1714
sI158
g1236
((lp1715
I134
aI166
aI106
aI115
aI149
aI126
atp1716
Rp1717
sI159
g1236
((lp1718
I192
aI193
aI163
aI172
aI188
aI191
atp1719
Rp1720
sI160
g1236
((lp1721
I196
aI169
aI170
aI175
aI176
aI185
atp1722
Rp1723
sI161
g1236
((lp1724
I194
aI197
aI198
aI199
aI200
aI190
atp1725
Rp1726
sI162
g1236
((lp1727
I195
aI167
aI136
aI174
aI119
aI153
atp1728
Rp1729
sI163
g1236
((lp1730
I192
aI193
aI153
aI159
aI188
aI191
atp1731
Rp1732
sI164
g1236
((lp1733
I135
aI168
aI180
aI181
aI187
aI189
atp1734
Rp1735
sI165
g1236
((lp1736
I131
aI133
aI107
aI141
aI120
aI124
atp1737
Rp1738
sI166
g1236
((lp1739
I134
aI106
aI177
aI115
aI158
aI126
atp1740
Rp1741
sI167
g1236
((lp1742
I162
aI195
aI136
aI174
aI114
aI119
aI125
atp1743
Rp1744
sI168
g1236
((lp1745
I164
aI135
aI180
aI181
aI148
aI187
aI189
atp1746
Rp1747
sI169
g1236
((lp1748
I160
aI196
aI170
aI139
aI175
aI152
aI185
atp1749
Rp1750
sI170
g1236
((lp1751
I160
aI176
aI196
aI169
aI144
aI150
aI152
atp1752
Rp1753
sI171
g1236
((lp1754
I173
aI111
aI112
aI116
aI184
aI121
aI154
atp1755
Rp1756
sI172
g1236
((lp1757
I192
aI193
aI156
aI159
aI187
aI188
aI191
atp1758
Rp1759
sI173
g1236
((lp1760
I171
aI111
aI112
aI151
aI184
aI121
aI154
atp1761
Rp1762
sI174
g1236
((lp1763
I162
aI195
aI167
aI136
aI114
aI153
aI125
atp1764
Rp1765
sI175
g1236
((lp1766
I160
aI196
aI169
aI176
aI150
aI152
aI185
atp1767
Rp1768
sI176
g1236
((lp1769
I160
aI196
aI170
aI139
aI175
aI150
aI185
atp1770
Rp1771
sI177
g1236
((lp1772
I166
aI138
aI178
aI179
aI182
aI183
aI186
atp1773
Rp1774
sI178
g1236
((lp1775
I105
aI151
aI177
aI179
aI182
aI183
aI186
atp1776
Rp1777
sI179
g1236
((lp1778
I105
aI138
aI177
aI178
aI182
aI183
aI186
atp1779
Rp1780
sI180
g1236
((lp1781
I164
aI168
aI148
aI117
aI187
aI188
aI189
aI181
atp1782
Rp1783
sI181
g1236
((lp1784
I164
aI135
aI168
aI108
aI148
aI180
aI187
aI189
atp1785
Rp1786
sI182
g1236
((lp1787
I105
aI138
aI183
aI177
aI178
aI179
aI151
aI186
atp1788
Rp1789
sI183
g1236
((lp1790
I134
aI138
aI177
aI178
aI179
aI182
aI151
aI186
atp1791
Rp1792
sI184
g1236
((lp1793
I192
aI171
aI173
aI111
aI112
aI116
aI121
aI154
atp1794
Rp1795
sI185
g1236
((lp1796
I160
aI196
aI169
aI139
aI175
aI176
aI150
aI152
atp1797
Rp1798
sI186
g1236
((lp1799
I105
aI138
aI183
aI177
aI178
aI179
aI182
aI151
aI189
atp1800
Rp1801
sI187
g1236
((lp1802
I164
aI135
aI168
aI172
aI148
aI117
aI180
aI189
aI181
atp1803
Rp1804
sI188
g1236
((lp1805
I192
aI193
aI163
aI172
aI143
aI180
aI191
aI156
aI159
atp1806
Rp1807
sI189
g1236
((lp1808
I164
aI135
aI168
aI180
aI117
aI148
aI186
aI187
aI181
atp1809
Rp1810
sI190
g1236
((lp1811
I161
aI194
aI197
aI198
aI199
aI200
aI155
aI157
aI127
atp1812
Rp1813
sI191
g1236
((lp1814
I192
aI193
aI163
aI197
aI156
aI172
aI143
aI188
aI159
atp1815
Rp1816
sI192
g1236
((lp1817
I193
aI163
aI188
aI172
aI143
aI184
aI191
aI156
aI159
atp1818
Rp1819
sI193
g1236
((lp1820
I192
aI163
aI140
aI172
aI143
aI188
aI191
aI156
aI159
atp1821
Rp1822
sI194
g1236
((lp1823
I161
aI197
aI198
aI199
aI200
aI110
aI155
aI157
aI190
atp1824
Rp1825
sI195
g1236
((lp1826
I162
aI167
aI136
aI199
aI174
aI114
aI119
aI153
aI125
atp1827
Rp1828
sI196
g1236
((lp1829
I160
aI169
aI170
aI139
aI175
aI176
aI150
aI152
aI185
atp1830
Rp1831
sI197
g1236
((lp1832
I161
aI194
aI198
aI199
aI200
aI110
aI155
aI157
aI190
aI191
atp1833
Rp1834
sI198
g1236
((lp1835
I161
aI194
aI197
aI199
aI200
aI110
aI155
aI157
aI190
aI127
atp1836
Rp1837
sI199
g1236
((lp1838
I161
aI194
aI195
aI197
aI198
aI200
aI155
aI157
aI190
aI127
atp1839
Rp1840
sI200
g1236
((lp1841
I161
aI194
aI197
aI198
aI199
aI142
aI110
aI155
aI157
aI190
aI127
atp1842
Rp1843
sa(dp1844
I3
g1236
((lp1845
I176
aI123
aI179
atp1846
Rp1847
sI5
g1236
((lp1848
I105
aI130
aI159
atp1849
Rp1850
sI6
g1236
((lp1851
I123
aI188
atp1852
Rp1853
sI9
g1236
((lp1854
I128
aI105
aI193
aI123
aI151
atp1855
Rp1856
sI10
g1236
((lp1857
I160
aI155
aI197
aI110
atp1858
Rp1859
sI15
g1236
((lp1860
I123
aI151
aI191
atp1861
Rp1862
sI17
g1236
((lp1863
I192
aI156
aI108
aI177
atp1864
Rp1865
sI22
g1236
((lp1866
I192
aI196
aI140
aI146
aI178
aI182
aI127
atp1867
Rp1868
sI26
g1236
((lp1869
I192
aI102
aI199
aI178
aI179
aI182
aI159
atp1870
Rp1871
sI27
g1236
((lp1872
I185
atp1873
Rp1874
sI34
g1236
((lp1875
I128
aI164
aI135
aI168
aI169
aI140
aI179
aI156
atp1876
Rp1877
sI35
g1236
((lp1878
I156
aI108
aI161
atp1879
Rp1880
sI38
g1236
((lp1881
I160
aI113
aI178
aI180
aI140
atp1882
Rp1883
sI39
g1236
((lp1884
I179
aI148
aI157
atp1885
Rp1886
sI43
g1236
((lp1887
I196
aI155
aI164
aI198
atp1888
Rp1889
sI47
g1236
((lp1890
I196
aI113
aI177
aI181
aI152
aI186
atp1891
Rp1892
sI48
g1236
((lp1893
I140
atp1894
Rp1895
sI49
g1236
((lp1896
I145
aI138
aI197
aI150
aI183
atp1897
Rp1898
sI50
g1236
((lp1899
I152
aI128
aI189
aI198
atp1900
Rp1901
sI51
g1236
((lp1902
I200
aI146
aI179
atp1903
Rp1904
sI52
g1236
((lp1905
I164
atp1906
Rp1907
sI55
g1236
((lp1908
I102
aI198
aI175
atp1909
Rp1910
sI56
g1236
((lp1911
I128
aI123
aI110
atp1912
Rp1913
sI57
g1236
((lp1914
I193
aI139
aI102
aI127
atp1915
Rp1916
sI58
g1236
((lp1917
I196
aI137
aI172
aI143
aI176
aI185
atp1918
Rp1919
sI59
g1236
((lp1920
I194
aI178
atp1921
Rp1922
sI60
g1236
((lp1923
I193
aI137
aI110
aI113
aI146
aI181
aI123
aI159
atp1924
Rp1925
sI61
g1236
((lp1926
I152
aI148
aI156
atp1927
Rp1928
sI63
g1236
((lp1929
I123
aI178
aI179
aI157
aI191
atp1930
Rp1931
sI64
g1236
((lp1932
I145
atp1933
Rp1934
sI66
g1236
((lp1935
I193
aI163
aI139
aI140
aI177
aI181
aI187
atp1936
Rp1937
sI68
g1236
((lp1938
I194
aI123
aI155
aI159
atp1939
Rp1940
sI69
g1236
((lp1941
I180
aI197
aI190
atp1942
Rp1943
sI70
g1236
((lp1944
I168
aI156
aI150
atp1945
Rp1946
sI72
g1236
((lp1947
I160
aI161
aI123
aI156
atp1948
Rp1949
sI75
g1236
((lp1950
I138
aI127
aI135
atp1951
Rp1952
sI76
g1236
((lp1953
I187
aI110
aI151
atp1954
Rp1955
sI77
g1236
((lp1956
I128
aI160
aI187
aI192
aI199
atp1957
Rp1958
sI78
g1236
((lp1959
I130
aI163
aI169
aI138
aI172
aI185
atp1960
Rp1961
sI79
g1236
((lp1962
I128
aI196
aI138
aI188
aI151
atp1963
Rp1964
sI80
g1236
((lp1965
I176
aI145
aI179
aI192
aI137
atp1966
Rp1967
sI81
g1236
((lp1968
I176
aI113
aI139
aI140
aI150
atp1969
Rp1970
sI82
g1236
((lp1971
I192
aI146
aI140
atp1972
Rp1973
sI83
g1236
((lp1974
I104
atp1975
Rp1976
sI85
g1236
((lp1977
I117
aI157
atp1978
Rp1979
sI86
g1236
((lp1980
I168
aI137
aI108
aI102
aI145
atp1981
Rp1982
sI87
g1236
((lp1983
I164
aI102
aI191
atp1984
Rp1985
sI88
g1236
((lp1986
I168
aI127
atp1987
Rp1988
sI89
g1236
((lp1989
I169
aI132
aI157
aI137
atp1990
Rp1991
sI90
g1236
((lp1992
I176
aI110
aI190
atp1993
Rp1994
sI91
g1236
((lp1995
I175
aI135
aI197
aI199
atp1996
Rp1997
sI92
g1236
((lp1998
I200
aI160
aI176
atp1999
Rp2000
sI93
g1236
((lp2001
I148
aI108
aI190
aI159
atp2002
Rp2003
sI94
g1236
((lp2004
I169
aI140
aI145
atp2005
Rp2006
sI96
g1236
((lp2007
I192
aI169
aI159
aI135
atp2008
Rp2009
sI97
g1236
((lp2010
I192
aI161
aI105
aI108
aI181
aI150
aI137
atp2011
Rp2012
sI98
g1236
((lp2013
I170
aI181
atp2014
Rp2015
sI99
g1236
((lp2016
I113
aI179
aI196
atp2017
Rp2018
sI100
g1236
((lp2019
I104
aI185
aI180
aI200
atp2020
Rp2021
sI102
g1236
((lp2022
I57
aI26
aI55
aI86
aI87
atp2023
Rp2024
sI104
g1236
((lp2025
I83
aI100
atp2026
Rp2027
sI105
g1236
((lp2028
I9
aI5
aI97
atp2029
Rp2030
sI108
g1236
((lp2031
I17
aI35
aI93
aI86
aI97
atp2032
Rp2033
sI110
g1236
((lp2034
I56
aI60
aI10
aI76
aI90
atp2035
Rp2036
sI113
g1236
((lp2037
I81
aI99
aI60
aI38
aI47
atp2038
Rp2039
sI117
g1236
((lp2040
I85
atp2041
Rp2042
sI123
g1236
((lp2043
I3
aI68
aI6
aI72
aI9
aI15
aI56
aI60
aI63
atp2044
Rp2045
sI127
g1236
((lp2046
I88
aI57
aI75
aI22
atp2047
Rp2048
sI128
g1236
((lp2049
I34
aI9
aI77
aI79
aI50
aI56
atp2050
Rp2051
sI130
g1236
((lp2052
I5
aI78
atp2053
Rp2054
sI132
g1236
((lp2055
I89
atp2056
Rp2057
sI135
g1236
((lp2058
I96
aI91
aI34
aI75
atp2059
Rp2060
sI137
g1236
((lp2061
I97
aI80
aI86
aI89
aI58
aI60
atp2062
Rp2063
sI138
g1236
((lp2064
I49
aI75
aI78
aI79
atp2065
Rp2066
sI139
g1236
((lp2067
I57
aI66
aI81
atp2068
Rp2069
sI140
g1236
((lp2070
I66
aI38
aI34
aI48
aI81
aI82
aI22
aI94
atp2071
Rp2072
sI143
g1236
((lp2073
I58
atp2074
Rp2075
sI145
g1236
((lp2076
I80
aI64
aI86
aI94
aI49
atp2077
Rp2078
sI146
g1236
((lp2079
I82
aI51
aI60
aI22
atp2080
Rp2081
sI148
g1236
((lp2082
I61
aI93
aI39
atp2083
Rp2084
sI150
g1236
((lp2085
I97
aI81
aI70
aI49
atp2086
Rp2087
sI151
g1236
((lp2088
I9
aI79
aI76
aI15
atp2089
Rp2090
sI152
g1236
((lp2091
I50
aI61
aI47
atp2092
Rp2093
sI155
g1236
((lp2094
I10
aI43
aI68
atp2095
Rp2096
sI156
g1236
((lp2097
I34
aI35
aI70
aI72
aI17
aI61
atp2098
Rp2099
sI157
g1236
((lp2100
I89
aI39
aI85
aI63
atp2101
Rp2102
sI159
g1236
((lp2103
I96
aI68
aI5
aI26
aI60
aI93
atp2104
Rp2105
sI160
g1236
((lp2106
I72
aI10
aI92
aI77
aI38
atp2107
Rp2108
sI161
g1236
((lp2109
I72
aI97
aI35
atp2110
Rp2111
sI163
g1236
((lp2112
I66
aI78
atp2113
Rp2114
sI164
g1236
((lp2115
I34
aI43
aI52
aI87
atp2116
Rp2117
sI168
g1236
((lp2118
I88
aI34
aI86
aI70
atp2119
Rp2120
sI169
g1236
((lp2121
I96
aI89
aI34
aI78
aI94
atp2122
Rp2123
sI170
g1236
((lp2124
I98
atp2125
Rp2126
sI172
g1236
((lp2127
I58
aI78
atp2128
Rp2129
sI175
g1236
((lp2130
I91
aI55
atp2131
Rp2132
sI176
g1236
((lp2133
I3
aI80
aI81
aI90
aI92
aI58
atp2134
Rp2135
sI177
g1236
((lp2136
I17
aI66
aI47
atp2137
Rp2138
sI178
g1236
((lp2139
I26
aI59
aI38
aI22
aI63
atp2140
Rp2141
sI179
g1236
((lp2142
I34
aI3
aI39
aI80
aI99
aI51
aI26
aI63
atp2143
Rp2144
sI180
g1236
((lp2145
I100
aI69
aI38
atp2146
Rp2147
sI181
g1236
((lp2148
I97
aI66
aI60
aI98
aI47
atp2149
Rp2150
sI182
g1236
((lp2151
I26
aI22
atp2152
Rp2153
sI183
g1236
((lp2154
I49
atp2155
Rp2156
sI185
g1236
((lp2157
I58
aI27
aI100
aI78
atp2158
Rp2159
sI186
g1236
((lp2160
I47
atp2161
Rp2162
sI187
g1236
((lp2163
I66
aI76
aI77
atp2164
Rp2165
sI188
g1236
((lp2166
I6
aI79
atp2167
Rp2168
sI189
g1236
((lp2169
I50
atp2170
Rp2171
sI190
g1236
((lp2172
I90
aI93
aI69
atp2173
Rp2174
sI191
g1236
((lp2175
I87
aI63
aI15
atp2176
Rp2177
sI192
g1236
((lp2178
I96
aI97
aI77
aI80
aI17
aI82
aI22
aI26
atp2179
Rp2180
sI193
g1236
((lp2181
I9
aI66
aI60
aI57
atp2182
Rp2183
sI194
g1236
((lp2184
I59
aI68
atp2185
Rp2186
sI196
g1236
((lp2187
I99
aI43
aI47
aI22
aI58
aI79
atp2188
Rp2189
sI197
g1236
((lp2190
I49
aI10
aI91
aI69
atp2191
Rp2192
sI198
g1236
((lp2193
I50
aI43
aI55
atp2194
Rp2195
sI199
g1236
((lp2196
I26
aI91
aI77
atp2197
Rp2198
sI200
g1236
((lp2199
I100
aI51
aI92
atp2200
Rp2201
sa(dp2202
I1
I1
sa(dp2203
I1
I2
sa(dp2204
I1
g1236
((lp2205
I1
aI2
aI3
aI4
aI5
aI6
aI7
aI8
aI9
aI10
aI11
aI12
aI13
aI14
aI15
aI16
aI17
aI18
aI19
aI20
aI21
aI22
aI23
aI24
aI25
aI26
aI27
aI28
aI29
aI30
aI31
aI32
aI33
aI34
aI35
aI36
aI37
aI38
aI39
aI40
aI41
aI42
aI43
aI44
aI45
aI46
aI47
aI48
aI49
aI50
aI51
aI52
aI53
aI54
aI55
aI56
aI57
aI58
aI59
aI60
aI61
aI62
aI63
aI64
aI65
aI66
aI67
aI68
aI69
aI70
aI71
aI72
aI73
aI74
aI75
aI76
aI77
aI78
aI79
aI80
aI81
aI82
aI83
aI84
aI85
aI86
aI87
aI88
aI89
aI90
aI91
aI92
aI93
aI94
aI95
aI96
aI97
aI98
aI99
aI100
aI101
aI102
aI103
aI104
aI105
aI106
aI107
aI108
aI109
aI110
aI111
aI112
aI113
aI114
aI115
aI116
aI117
aI118
aI119
aI120
aI121
aI122
aI123
aI124
aI125
aI126
aI127
aI128
aI129
aI130
aI131
aI132
aI133
aI134
aI135
aI136
aI137
aI138
aI139
aI140
aI141
aI142
aI143
aI144
aI145
aI146
aI147
aI148
aI149
aI150
aI151
aI152
aI153
aI154
aI155
aI156
aI157
aI158
aI159
aI160
aI161
aI162
aI163
aI164
aI165
aI166
aI167
aI168
aI169
aI170
aI171
aI172
aI173
aI174
aI175
aI176
aI177
aI178
aI179
aI180
aI181
aI182
aI183
aI184
aI185
aI186
aI187
aI188
aI189
aI190
aI191
aI192
aI193
aI194
aI195
aI196
aI197
aI198
aI199
aI200
atp2206
Rp2207
sa(dp2208
I1
I590
sI2
I590
sa(dp2209
I1
I227
saI0
a(dp2210
I1
g1236
((lp2211
I192
aI193
aI66
aI163
aI6
aI188
aI191
aI172
aI34
aI15
aI26
aI143
aI156
aI58
aI159
atp2212
Rp2213
sI2
g1236
((lp2214
I3
aI182
aI177
aI9
aI138
aI151
aI47
aI49
aI178
aI179
aI22
aI105
aI186
aI183
atp2215
Rp2216
sI3
g1236
((lp2217
I161
aI194
aI91
aI197
aI198
aI199
aI72
aI43
aI200
aI110
aI157
aI88
aI155
aI56
aI127
aI59
aI92
aI93
aI190
aI63
atp2218
Rp2219
sI4
g1236
((lp2220
I160
aI97
aI98
aI99
aI100
aI185
aI169
aI10
aI139
aI175
aI176
aI170
aI196
aI150
aI55
aI152
aI57
aI90
aI27
aI61
aI94
atp2221
Rp2222
sI5
g1236
((lp2223
I64
aI80
aI132
aI35
aI68
aI102
aI81
aI145
aI140
aI108
aI48
aI17
aI87
aI89
aI123
atp2224
Rp2225
sI6
g1236
((lp2226
I96
aI181
aI180
aI164
aI69
aI70
aI39
aI168
aI75
aI76
aI135
aI50
aI52
aI85
aI148
aI187
aI60
aI189
aI117
atp2227
Rp2228
sI7
g1236
((lp2229
I128
aI83
aI5
aI38
aI104
aI137
aI77
aI78
aI79
aI113
aI82
aI51
aI86
aI146
aI130
atp2230
Rp2231
sI8
g1236
((lp2232
I1
aI18
aI42
aI44
aI29
atp2233
Rp2234
sI9
g1236
((lp2235
I4
aI37
aI13
aI46
aI28
aI30
atp2236
Rp2237
sI10
g1236
((lp2238
I67
aI36
aI74
aI14
aI19
aI53
aI25
aI62
aI95
atp2239
Rp2240
sI11
g1236
((lp2241
I32
aI2
aI8
aI45
aI40
aI23
atp2242
Rp2243
sI12
g1236
((lp2244
I71
aI73
aI11
aI12
aI16
aI84
aI21
aI54
atp2245
Rp2246
sI13
g1236
((lp2247
I33
aI65
aI7
aI41
aI20
aI24
aI31
atp2248
Rp2249
sI14
g1236
((lp2250
I134
aI166
aI106
aI115
aI158
aI126
atp2251
Rp2252
sI15
g1236
((lp2253
I144
aI129
aI101
aI118
aI142
atp2254
Rp2255
sI16
g1236
((lp2256
I149
aI122
aI147
aI109
aI103
atp2257
Rp2258
sI17
g1236
((lp2259
I162
aI195
aI167
aI136
aI174
aI114
aI119
aI153
aI125
atp2260
Rp2261
sI18
g1236
((lp2262
I171
aI173
aI111
aI112
aI116
aI184
aI121
aI154
atp2263
Rp2264
sI19
g1236
((lp2265
I131
aI133
aI107
aI141
aI120
aI124
aI165
atp2266
Rp2267
sa.