(lp0
(dp1
I1
I0
sI2
I1
sI3
I2
sI4
I3
sI5
I4
sI6
I5
sI7
I6
sI8
I1
sI9
I2
sI10
I7
sI11
I8
sI12
I8
sI13
I3
sI14
I9
sI15
I5
sI16
I8
sI17
I10
sI18
I11
sI19
I9
sI20
I6
sI21
I8
sI22
I2
sI23
I1
sI24
I6
sI25
I9
sI26
I5
sI27
I7
sI28
I3
sI29
I11
sI30
I3
sI31
I6
sI32
I1
sI33
I6
sI34
I5
sI35
I10
sI36
I9
sI37
I3
sI38
I4
sI39
I12
sI40
I1
sI41
I6
sI42
I11
sI43
I13
sI44
I11
sI45
I1
sI46
I3
sI47
I2
sI48
I10
sI49
I2
sI50
I12
sI51
I4
sI52
I12
sI53
I9
sI54
I8
sI55
I7
sI56
I13
sI57
I7
sI58
I5
sI59
I13
sI60
I12
sI61
I7
sI62
I9
sI63
I13
sI64
I10
sI65
I6
sI66
I5
sI67
I9
sI68
I10
sI69
I12
sI70
I12
sI71
I8
sI72
I13
sI73
I8
sI74
I9
sI75
I12
sI76
I12
sI77
I4
sI78
I4
sI79
I4
sI80
I10
sI81
I10
sI82
I4
sI83
I4
sI84
I8
sI85
I12
sI86
I4
sI87
I10
sI88
I13
sI89
I10
sI90
I7
sI91
I13
sI92
I13
sI93
I13
sI94
I7
sI95
I9
sI96
I12
sI97
I7
sI98
I7
sI99
I7
sI100
I7
sI101
I14
sI102
I2
sI103
I7
sI104
I6
sI105
I15
sI106
I16
sI107
I3
sI108
I2
sI109
I7
sI110
I17
sI111
I13
sI112
I13
sI113
I6
sI114
I0
sI115
I16
sI116
I13
sI117
I8
sI118
I14
sI119
I0
sI120
I3
sI121
I13
sI122
I7
sI123
I2
sI124
I3
sI125
I0
sI126
I16
sI127
I17
sI128
I6
sI129
I14
sI130
I6
sI131
I3
sI132
I2
sI133
I3
sI134
I16
sI135
I8
sI136
I0
sI137
I6
sI138
I15
sI139
I12
sI140
I2
sI141
I3
sI142
I14
sI143
I18
sI144
I14
sI145
I2
sI146
I6
sI147
I7
sI148
I8
sI149
I7
sI150
I12
sI151
I15
sI152
I12
sI153
I0
sI154
I13
sI155
I17
sI156
I18
sI157
I17
sI158
I16
sI159
I18
sI160
I12
sI161
I17
sI162
I0
sI163
I18
sI164
I8
sI165
I3
sI166
I16
sI167
I0
sI168
I8
sI169
I12
sI170
I12
sI171
I13
sI172
I18
sI173
I13
sI174
I0
sI175
I12
sI176
I12
sI177
I15
sI178
I15
sI179
I15
sI180
I8
sI181
I8
sI182
I15
sI183
I15
sI184
I13
sI185
I12
sI186
I15
sI187
I8
sI188
I18
sI189
I8
sI190
I17
sI191
I18
sI192
I18
sI193
I18
sI194
I17
sI195
I0
sI196
I12
sI197
I17
sI198
I17
sI199
I17
sI200
I17
sa(dp2
I0
I0
sI1
I1
sI2
I2
sI3
I3
sI4
I4
sI5
I4
sI6
I5
sI7
I6
sI8
I7
sI9
I8
sI10
I9
sI11
I0
sI12
I10
sI13
I11
sI14
I12
sI15
I13
sI16
I13
sI17
I14
sI18
I15
sa.