(lp0
(dp1
I1
I0
sI2
I1
sI3
I2
sI4
I3
sI5
I4
sI6
I5
sI7
I6
sI8
I1
sI9
I2
sI10
I7
sI11
I8
sI12
I8
sI13
I3
sI14
I9
sI15
I5
sI16
I8
sI17
I10
sI18
I0
sI19
I9
sI20
I6
sI21
I8
sI22
I2
sI23
I1
sI24
I6
sI25
I9
sI26
I5
sI27
I7
sI28
I3
sI29
I0
sI30
I3
sI31
I6
sI32
I1
sI33
I6
sI34
I5
sI35
I10
sI36
I9
sI37
I3
sI38
I4
sI39
I11
sI40
I12
sI41
I6
sI42
I0
sI43
I13
sI44
I0
sI45
I1
sI46
I3
sI47
I2
sI48
I10
sI49
I2
sI50
I11
sI51
I4
sI52
I11
sI53
I9
sI54
I8
sI55
I7
sI56
I13
sI57
I7
sI58
I5
sI59
I13
sI60
I11
sI61
I7
sI62
I9
sI63
I13
sI64
I10
sI65
I6
sI66
I5
sI67
I9
sI68
I10
sI69
I11
sI70
I11
sI71
I8
sI72
I13
sI73
I8
sI74
I9
sI75
I11
sI76
I11
sI77
I4
sI78
I4
sI79
I4
sI80
I10
sI81
I10
sI82
I4
sI83
I4
sI84
I8
sI85
I11
sI86
I4
sI87
I10
sI88
I13
sI89
I10
sI90
I7
sI91
I13
sI92
I13
sI93
I13
sI94
I7
sI95
I9
sI96
I11
sI97
I7
sI98
I7
sI99
I7
sI100
I7
sI101
I14
sI102
I10
sI103
I15
sI104
I16
sI105
I4
sI106
I12
sI107
I17
sI108
I10
sI109
I15
sI110
I8
sI111
I0
sI112
I0
sI113
I16
sI114
I18
sI115
I12
sI116
I3
sI117
I19
sI118
I14
sI119
I18
sI120
I20
sI121
I0
sI122
I15
sI123
I10
sI124
I20
sI125
I18
sI126
I12
sI127
I8
sI128
I16
sI129
I14
sI130
I16
sI131
I17
sI132
I10
sI133
I20
sI134
I12
sI135
I19
sI136
I18
sI137
I16
sI138
I4
sI139
I21
sI140
I10
sI141
I17
sI142
I14
sI143
I1
sI144
I14
sI145
I10
sI146
I16
sI147
I15
sI148
I19
sI149
I15
sI150
I21
sI151
I4
sI152
I21
sI153
I18
sI154
I0
sI155
I8
sI156
I9
sI157
I8
sI158
I12
sI159
I1
sI160
I21
sI161
I8
sI162
I18
sI163
I1
sI164
I19
sI165
I17
sI166
I12
sI167
I18
sI168
I19
sI169
I21
sI170
I21
sI171
I0
sI172
I1
sI173
I0
sI174
I18
sI175
I21
sI176
I21
sI177
I4
sI178
I4
sI179
I4
sI180
I19
sI181
I19
sI182
I4
sI183
I4
sI184
I0
sI185
I21
sI186
I4
sI187
I19
sI188
I1
sI189
I19
sI190
I8
sI191
I1
sI192
I1
sI193
I1
sI194
I8
sI195
I18
sI196
I21
sI197
I8
sI198
I8
sI199
I8
sI200
I8
sa(dp2
I0
I0
sI1
I1
sI2
I2
sI3
I0
sI4
I3
sI5
I2
sI6
I4
sI7
I5
sI8
I6
sI9
I1
sI10
I0
sI11
I7
sI12
I0
sI13
I8
sI14
I9
sI15
I10
sI16
I11
sI17
I12
sI18
I13
sI19
I10
sI20
I12
sI21
I9
sa.