(lp0
(dp1
I1
I0
sI2
I1
sI3
I2
sI4
I3
sI5
I4
sI6
I5
sI7
I6
sI8
I1
sI9
I2
sI10
I7
sI11
I8
sI12
I8
sI13
I9
sI14
I10
sI15
I5
sI16
I8
sI17
I11
sI18
I12
sI19
I10
sI20
I6
sI21
I8
sI22
I2
sI23
I1
sI24
I6
sI25
I10
sI26
I5
sI27
I7
sI28
I9
sI29
I12
sI30
I9
sI31
I6
sI32
I1
sI33
I6
sI34
I5
sI35
I11
sI36
I10
sI37
I9
sI38
I4
sI39
I13
sI40
I1
sI41
I6
sI42
I12
sI43
I14
sI44
I12
sI45
I1
sI46
I9
sI47
I2
sI48
I11
sI49
I2
sI50
I13
sI51
I4
sI52
I13
sI53
I10
sI54
I8
sI55
I7
sI56
I14
sI57
I7
sI58
I5
sI59
I14
sI60
I13
sI61
I7
sI62
I10
sI63
I15
sI64
I11
sI65
I6
sI66
I5
sI67
I10
sI68
I11
sI69
I13
sI70
I13
sI71
I8
sI72
I14
sI73
I8
sI74
I10
sI75
I13
sI76
I13
sI77
I4
sI78
I4
sI79
I4
sI80
I11
sI81
I11
sI82
I4
sI83
I4
sI84
I8
sI85
I13
sI86
I4
sI87
I11
sI88
I14
sI89
I11
sI90
I7
sI91
I14
sI92
I14
sI93
I14
sI94
I7
sI95
I10
sI96
I13
sI97
I7
sI98
I7
sI99
I7
sI100
I7
sI101
I16
sI102
I14
sI103
I17
sI104
I18
sI105
I15
sI106
I12
sI107
I19
sI108
I14
sI109
I17
sI110
I6
sI111
I11
sI112
I11
sI113
I18
sI114
I20
sI115
I21
sI116
I11
sI117
I0
sI118
I16
sI119
I20
sI120
I22
sI121
I11
sI122
I17
sI123
I14
sI124
I22
sI125
I20
sI126
I5
sI127
I7
sI128
I18
sI129
I16
sI130
I18
sI131
I19
sI132
I14
sI133
I22
sI134
I21
sI135
I0
sI136
I20
sI137
I18
sI138
I15
sI139
I9
sI140
I14
sI141
I19
sI142
I16
sI143
I3
sI144
I16
sI145
I14
sI146
I18
sI147
I17
sI148
I0
sI149
I17
sI150
I9
sI151
I15
sI152
I9
sI153
I20
sI154
I11
sI155
I6
sI156
I3
sI157
I6
sI158
I21
sI159
I3
sI160
I9
sI161
I6
sI162
I20
sI163
I8
sI164
I0
sI165
I19
sI166
I21
sI167
I20
sI168
I0
sI169
I9
sI170
I9
sI171
I11
sI172
I3
sI173
I11
sI174
I20
sI175
I9
sI176
I9
sI177
I15
sI178
I15
sI179
I15
sI180
I0
sI181
I0
sI182
I15
sI183
I15
sI184
I11
sI185
I9
sI186
I15
sI187
I0
sI188
I3
sI189
I0
sI190
I6
sI191
I3
sI192
I3
sI193
I3
sI194
I6
sI195
I20
sI196
I9
sI197
I6
sI198
I6
sI199
I6
sI200
I6
sa(dp2
I0
I0
sI1
I1
sI2
I2
sI3
I3
sI4
I4
sI5
I3
sI6
I5
sI7
I6
sI8
I7
sI9
I7
sI10
I8
sI11
I9
sI12
I0
sI13
I10
sI14
I11
sI15
I6
sI16
I12
sI17
I13
sI18
I14
sI19
I15
sI20
I16
sI21
I0
sI22
I15
sa.