(lp0
(dp1
I1
I0
sI2
I1
sI3
I2
sI4
I3
sI5
I4
sI6
I5
sI7
I6
sI8
I1
sI9
I2
sI10
I7
sI11
I8
sI12
I8
sI13
I3
sI14
I9
sI15
I5
sI16
I8
sI17
I10
sI18
I11
sI19
I9
sI20
I6
sI21
I8
sI22
I2
sI23
I1
sI24
I6
sI25
I9
sI26
I5
sI27
I7
sI28
I3
sI29
I11
sI30
I3
sI31
I6
sI32
I1
sI33
I6
sI34
I5
sI35
I10
sI36
I9
sI37
I3
sI38
I4
sI39
I12
sI40
I1
sI41
I6
sI42
I11
sI43
I13
sI44
I11
sI45
I1
sI46
I3
sI47
I2
sI48
I10
sI49
I2
sI50
I12
sI51
I4
sI52
I12
sI53
I9
sI54
I8
sI55
I7
sI56
I13
sI57
I7
sI58
I5
sI59
I13
sI60
I12
sI61
I7
sI62
I9
sI63
I13
sI64
I10
sI65
I6
sI66
I5
sI67
I9
sI68
I10
sI69
I12
sI70
I12
sI71
I8
sI72
I13
sI73
I8
sI74
I9
sI75
I12
sI76
I12
sI77
I4
sI78
I4
sI79
I4
sI80
I10
sI81
I10
sI82
I4
sI83
I4
sI84
I8
sI85
I12
sI86
I4
sI87
I10
sI88
I13
sI89
I10
sI90
I7
sI91
I13
sI92
I13
sI93
I13
sI94
I7
sI95
I9
sI96
I12
sI97
I7
sI98
I7
sI99
I7
sI100
I7
sI101
I14
sI102
I15
sI103
I16
sI104
I2
sI105
I17
sI106
I18
sI107
I19
sI108
I15
sI109
I16
sI110
I0
sI111
I3
sI112
I3
sI113
I2
sI114
I20
sI115
I18
sI116
I3
sI117
I21
sI118
I14
sI119
I20
sI120
I22
sI121
I3
sI122
I16
sI123
I15
sI124
I22
sI125
I20
sI126
I18
sI127
I0
sI128
I2
sI129
I14
sI130
I2
sI131
I19
sI132
I15
sI133
I22
sI134
I18
sI135
I21
sI136
I20
sI137
I2
sI138
I17
sI139
I23
sI140
I15
sI141
I19
sI142
I14
sI143
I24
sI144
I14
sI145
I15
sI146
I2
sI147
I16
sI148
I21
sI149
I16
sI150
I23
sI151
I17
sI152
I23
sI153
I20
sI154
I3
sI155
I0
sI156
I24
sI157
I0
sI158
I18
sI159
I24
sI160
I23
sI161
I0
sI162
I20
sI163
I24
sI164
I21
sI165
I19
sI166
I18
sI167
I20
sI168
I21
sI169
I23
sI170
I23
sI171
I3
sI172
I24
sI173
I3
sI174
I20
sI175
I23
sI176
I23
sI177
I17
sI178
I17
sI179
I17
sI180
I21
sI181
I21
sI182
I17
sI183
I17
sI184
I3
sI185
I23
sI186
I17
sI187
I21
sI188
I24
sI189
I21
sI190
I0
sI191
I24
sI192
I24
sI193
I24
sI194
I0
sI195
I20
sI196
I23
sI197
I0
sI198
I0
sI199
I0
sI200
I0
sa(dp2
I0
I0
sI1
I1
sI2
I2
sI3
I3
sI4
I4
sI5
I4
sI6
I5
sI7
I6
sI8
I7
sI9
I8
sI10
I9
sI11
I0
sI12
I10
sI13
I11
sI14
I12
sI15
I13
sI16
I14
sI17
I15
sI18
I15
sI19
I16
sI20
I17
sI21
I18
sI22
I16
sI23
I19
sI24
I20
sa.