(lp0
(dp1
I1
I0
sI2
I1
sI3
I2
sI4
I3
sI5
I4
sI6
I5
sI7
I6
sI8
I1
sI9
I2
sI10
I7
sI11
I8
sI12
I9
sI13
I3
sI14
I10
sI15
I5
sI16
I9
sI17
I11
sI18
I0
sI19
I10
sI20
I6
sI21
I9
sI22
I2
sI23
I1
sI24
I6
sI25
I12
sI26
I13
sI27
I7
sI28
I3
sI29
I0
sI30
I3
sI31
I6
sI32
I1
sI33
I6
sI34
I5
sI35
I11
sI36
I10
sI37
I3
sI38
I4
sI39
I14
sI40
I1
sI41
I6
sI42
I0
sI43
I15
sI44
I0
sI45
I1
sI46
I3
sI47
I2
sI48
I11
sI49
I2
sI50
I14
sI51
I4
sI52
I14
sI53
I10
sI54
I9
sI55
I7
sI56
I15
sI57
I7
sI58
I5
sI59
I15
sI60
I14
sI61
I7
sI62
I10
sI63
I15
sI64
I11
sI65
I6
sI66
I5
sI67
I10
sI68
I11
sI69
I14
sI70
I14
sI71
I9
sI72
I15
sI73
I9
sI74
I10
sI75
I14
sI76
I14
sI77
I4
sI78
I4
sI79
I4
sI80
I11
sI81
I11
sI82
I4
sI83
I4
sI84
I9
sI85
I14
sI86
I4
sI87
I11
sI88
I15
sI89
I11
sI90
I7
sI91
I15
sI92
I15
sI93
I15
sI94
I7
sI95
I10
sI96
I14
sI97
I7
sI98
I7
sI99
I7
sI100
I7
sI101
I2
sI102
I6
sI103
I7
sI104
I5
sI105
I16
sI106
I11
sI107
I4
sI108
I6
sI109
I7
sI110
I8
sI111
I1
sI112
I1
sI113
I5
sI114
I14
sI115
I11
sI116
I1
sI117
I15
sI118
I2
sI119
I14
sI120
I4
sI121
I1
sI122
I7
sI123
I6
sI124
I4
sI125
I14
sI126
I11
sI127
I8
sI128
I5
sI129
I2
sI130
I5
sI131
I4
sI132
I6
sI133
I4
sI134
I11
sI135
I13
sI136
I14
sI137
I5
sI138
I16
sI139
I12
sI140
I6
sI141
I4
sI142
I2
sI143
I0
sI144
I2
sI145
I6
sI146
I5
sI147
I7
sI148
I13
sI149
I7
sI150
I12
sI151
I16
sI152
I12
sI153
I14
sI154
I1
sI155
I8
sI156
I0
sI157
I8
sI158
I11
sI159
I0
sI160
I12
sI161
I8
sI162
I14
sI163
I0
sI164
I13
sI165
I4
sI166
I11
sI167
I14
sI168
I13
sI169
I12
sI170
I12
sI171
I1
sI172
I0
sI173
I1
sI174
I14
sI175
I12
sI176
I12
sI177
I16
sI178
I16
sI179
I16
sI180
I13
sI181
I13
sI182
I16
sI183
I16
sI184
I1
sI185
I12
sI186
I16
sI187
I13
sI188
I0
sI189
I13
sI190
I8
sI191
I0
sI192
I0
sI193
I0
sI194
I8
sI195
I14
sI196
I12
sI197
I8
sI198
I8
sI199
I8
sI200
I8
sa(dp2
I0
I0
sI1
I1
sI2
I2
sI3
I3
sI4
I4
sI5
I5
sI6
I6
sI7
I7
sI8
I8
sI9
I8
sI10
I9
sI11
I10
sI12
I9
sI13
I11
sI14
I12
sI15
I11
sI16
I13
sa.