(lp0
(dp1
I1
I0
sI2
I1
sI3
I2
sI4
I3
sI5
I4
sI6
I5
sI7
I6
sI8
I1
sI9
I2
sI10
I7
sI11
I8
sI12
I9
sI13
I3
sI14
I10
sI15
I5
sI16
I9
sI17
I11
sI18
I0
sI19
I10
sI20
I6
sI21
I9
sI22
I2
sI23
I1
sI24
I6
sI25
I10
sI26
I5
sI27
I7
sI28
I3
sI29
I0
sI30
I3
sI31
I6
sI32
I1
sI33
I6
sI34
I5
sI35
I11
sI36
I10
sI37
I3
sI38
I4
sI39
I12
sI40
I1
sI41
I6
sI42
I0
sI43
I13
sI44
I0
sI45
I1
sI46
I3
sI47
I2
sI48
I11
sI49
I2
sI50
I12
sI51
I4
sI52
I12
sI53
I10
sI54
I9
sI55
I7
sI56
I13
sI57
I7
sI58
I5
sI59
I13
sI60
I12
sI61
I7
sI62
I10
sI63
I13
sI64
I11
sI65
I6
sI66
I5
sI67
I10
sI68
I11
sI69
I12
sI70
I12
sI71
I9
sI72
I13
sI73
I9
sI74
I10
sI75
I12
sI76
I12
sI77
I4
sI78
I4
sI79
I4
sI80
I11
sI81
I11
sI82
I4
sI83
I4
sI84
I9
sI85
I12
sI86
I4
sI87
I11
sI88
I13
sI89
I11
sI90
I7
sI91
I13
sI92
I13
sI93
I13
sI94
I7
sI95
I10
sI96
I12
sI97
I7
sI98
I7
sI99
I7
sI100
I7
sI101
I14
sI102
I15
sI103
I6
sI104
I16
sI105
I17
sI106
I3
sI107
I18
sI108
I15
sI109
I6
sI110
I8
sI111
I7
sI112
I7
sI113
I16
sI114
I19
sI115
I3
sI116
I7
sI117
I5
sI118
I14
sI119
I19
sI120
I20
sI121
I7
sI122
I6
sI123
I15
sI124
I20
sI125
I19
sI126
I3
sI127
I8
sI128
I16
sI129
I14
sI130
I16
sI131
I18
sI132
I15
sI133
I20
sI134
I3
sI135
I5
sI136
I19
sI137
I16
sI138
I17
sI139
I21
sI140
I15
sI141
I18
sI142
I14
sI143
I2
sI144
I14
sI145
I15
sI146
I16
sI147
I6
sI148
I5
sI149
I6
sI150
I21
sI151
I17
sI152
I21
sI153
I19
sI154
I7
sI155
I8
sI156
I2
sI157
I8
sI158
I3
sI159
I2
sI160
I21
sI161
I8
sI162
I19
sI163
I2
sI164
I5
sI165
I18
sI166
I3
sI167
I19
sI168
I5
sI169
I21
sI170
I21
sI171
I7
sI172
I2
sI173
I7
sI174
I19
sI175
I21
sI176
I21
sI177
I17
sI178
I17
sI179
I17
sI180
I5
sI181
I5
sI182
I17
sI183
I17
sI184
I7
sI185
I21
sI186
I17
sI187
I5
sI188
I2
sI189
I5
sI190
I8
sI191
I2
sI192
I2
sI193
I2
sI194
I8
sI195
I19
sI196
I21
sI197
I8
sI198
I8
sI199
I8
sI200
I8
sa(dp2
I0
I0
sI1
I1
sI2
I2
sI3
I3
sI4
I4
sI5
I5
sI6
I6
sI7
I7
sI8
I8
sI9
I8
sI10
I9
sI11
I10
sI12
I11
sI13
I12
sI14
I13
sI15
I14
sI16
I15
sI17
I16
sI18
I17
sI19
I9
sI20
I17
sI21
I18
sa.