(dp0
I1
I0
sI2
I1
sI3
I2
sI4
I3
sI5
I4
sI6
I4
sI7
I5
sI8
I1
sI9
I2
sI10
I6
sI11
I7
sI12
I7
sI13
I3
sI14
I8
sI15
I4
sI16
I7
sI17
I9
sI18
I0
sI19
I8
sI20
I5
sI21
I7
sI22
I2
sI23
I1
sI24
I5
sI25
I8
sI26
I4
sI27
I6
sI28
I3
sI29
I0
sI30
I3
sI31
I5
sI32
I1
sI33
I5
sI34
I4
sI35
I9
sI36
I8
sI37
I3
sI38
I4
sI39
I10
sI40
I1
sI41
I5
sI42
I0
sI43
I11
sI44
I0
sI45
I1
sI46
I3
sI47
I2
sI48
I9
sI49
I2
sI50
I10
sI51
I4
sI52
I10
sI53
I8
sI54
I7
sI55
I6
sI56
I11
sI57
I6
sI58
I4
sI59
I11
sI60
I10
sI61
I6
sI62
I8
sI63
I11
sI64
I9
sI65
I5
sI66
I4
sI67
I8
sI68
I9
sI69
I10
sI70
I10
sI71
I7
sI72
I11
sI73
I7
sI74
I8
sI75
I10
sI76
I10
sI77
I4
sI78
I4
sI79
I4
sI80
I9
sI81
I9
sI82
I4
sI83
I4
sI84
I7
sI85
I10
sI86
I4
sI87
I9
sI88
I11
sI89
I9
sI90
I6
sI91
I11
sI92
I11
sI93
I11
sI94
I6
sI95
I8
sI96
I10
sI97
I6
sI98
I6
sI99
I6
sI100
I6
sI101
I12
sI102
I13
sI103
I14
sI104
I15
sI105
I16
sI106
I16
sI107
I7
sI108
I13
sI109
I14
sI110
I6
sI111
I17
sI112
I17
sI113
I15
sI114
I3
sI115
I16
sI116
I17
sI117
I11
sI118
I12
sI119
I3
sI120
I7
sI121
I17
sI122
I14
sI123
I13
sI124
I7
sI125
I3
sI126
I16
sI127
I6
sI128
I15
sI129
I12
sI130
I15
sI131
I7
sI132
I13
sI133
I7
sI134
I16
sI135
I11
sI136
I3
sI137
I15
sI138
I16
sI139
I9
sI140
I13
sI141
I7
sI142
I12
sI143
I1
sI144
I12
sI145
I13
sI146
I15
sI147
I14
sI148
I11
sI149
I14
sI150
I9
sI151
I16
sI152
I9
sI153
I3
sI154
I17
sI155
I6
sI156
I1
sI157
I6
sI158
I16
sI159
I1
sI160
I9
sI161
I6
sI162
I3
sI163
I1
sI164
I11
sI165
I7
sI166
I16
sI167
I3
sI168
I11
sI169
I9
sI170
I9
sI171
I17
sI172
I1
sI173
I17
sI174
I3
sI175
I9
sI176
I9
sI177
I16
sI178
I16
sI179
I16
sI180
I11
sI181
I11
sI182
I16
sI183
I16
sI184
I17
sI185
I9
sI186
I16
sI187
I11
sI188
I1
sI189
I11
sI190
I6
sI191
I1
sI192
I1
sI193
I1
sI194
I6
sI195
I3
sI196
I9
sI197
I6
sI198
I6
sI199
I6
sI200
I6
s.