(lp0
(dp1
I1
I0
sI2
I1
sI3
I2
sI4
I3
sI5
I4
sI6
I5
sI7
I6
sI8
I1
sI9
I2
sI10
I7
sI11
I8
sI12
I8
sI13
I3
sI14
I9
sI15
I5
sI16
I8
sI17
I10
sI18
I0
sI19
I9
sI20
I11
sI21
I8
sI22
I2
sI23
I1
sI24
I11
sI25
I9
sI26
I5
sI27
I7
sI28
I3
sI29
I0
sI30
I3
sI31
I12
sI32
I1
sI33
I11
sI34
I5
sI35
I10
sI36
I9
sI37
I3
sI38
I4
sI39
I13
sI40
I1
sI41
I11
sI42
I0
sI43
I14
sI44
I0
sI45
I1
sI46
I3
sI47
I2
sI48
I10
sI49
I2
sI50
I13
sI51
I4
sI52
I13
sI53
I9
sI54
I8
sI55
I7
sI56
I14
sI57
I7
sI58
I5
sI59
I14
sI60
I13
sI61
I7
sI62
I9
sI63
I14
sI64
I10
sI65
I11
sI66
I5
sI67
I9
sI68
I10
sI69
I13
sI70
I13
sI71
I8
sI72
I14
sI73
I8
sI74
I9
sI75
I13
sI76
I13
sI77
I4
sI78
I4
sI79
I4
sI80
I10
sI81
I10
sI82
I4
sI83
I4
sI84
I8
sI85
I13
sI86
I4
sI87
I10
sI88
I14
sI89
I10
sI90
I7
sI91
I14
sI92
I14
sI93
I14
sI94
I7
sI95
I9
sI96
I13
sI97
I7
sI98
I7
sI99
I7
sI100
I7
sI101
I15
sI102
I16
sI103
I17
sI104
I18
sI105
I19
sI106
I20
sI107
I14
sI108
I16
sI109
I17
sI110
I21
sI111
I22
sI112
I22
sI113
I18
sI114
I23
sI115
I20
sI116
I22
sI117
I6
sI118
I15
sI119
I23
sI120
I14
sI121
I22
sI122
I17
sI123
I16
sI124
I14
sI125
I23
sI126
I20
sI127
I21
sI128
I18
sI129
I15
sI130
I18
sI131
I14
sI132
I16
sI133
I14
sI134
I20
sI135
I6
sI136
I23
sI137
I18
sI138
I19
sI139
I12
sI140
I16
sI141
I14
sI142
I15
sI143
I24
sI144
I15
sI145
I16
sI146
I18
sI147
I17
sI148
I6
sI149
I17
sI150
I12
sI151
I19
sI152
I12
sI153
I23
sI154
I22
sI155
I21
sI156
I24
sI157
I21
sI158
I20
sI159
I24
sI160
I12
sI161
I21
sI162
I23
sI163
I24
sI164
I6
sI165
I14
sI166
I20
sI167
I23
sI168
I6
sI169
I12
sI170
I12
sI171
I22
sI172
I24
sI173
I22
sI174
I23
sI175
I12
sI176
I12
sI177
I19
sI178
I19
sI179
I19
sI180
I6
sI181
I6
sI182
I19
sI183
I19
sI184
I22
sI185
I12
sI186
I19
sI187
I6
sI188
I24
sI189
I6
sI190
I21
sI191
I24
sI192
I24
sI193
I24
sI194
I21
sI195
I23
sI196
I12
sI197
I21
sI198
I21
sI199
I21
sI200
I21
sa(dp2
I0
I0
sI1
I1
sI2
I2
sI3
I3
sI4
I4
sI5
I4
sI6
I5
sI7
I6
sI8
I7
sI9
I8
sI10
I9
sI11
I5
sI12
I5
sI13
I10
sI14
I7
sI15
I11
sI16
I12
sI17
I13
sI18
I14
sI19
I15
sI20
I15
sI21
I16
sI22
I17
sI23
I18
sI24
I19
sa.