(lp0
(dp1
I1
I0
sI2
I1
sI3
I2
sI4
I3
sI5
I4
sI6
I5
sI7
I6
sI8
I1
sI9
I2
sI10
I7
sI11
I8
sI12
I8
sI13
I3
sI14
I9
sI15
I5
sI16
I8
sI17
I10
sI18
I0
sI19
I9
sI20
I6
sI21
I8
sI22
I2
sI23
I1
sI24
I6
sI25
I9
sI26
I5
sI27
I7
sI28
I3
sI29
I0
sI30
I3
sI31
I6
sI32
I1
sI33
I6
sI34
I11
sI35
I10
sI36
I9
sI37
I3
sI38
I4
sI39
I12
sI40
I1
sI41
I6
sI42
I0
sI43
I13
sI44
I0
sI45
I1
sI46
I3
sI47
I2
sI48
I10
sI49
I2
sI50
I12
sI51
I4
sI52
I12
sI53
I9
sI54
I8
sI55
I7
sI56
I13
sI57
I7
sI58
I5
sI59
I13
sI60
I12
sI61
I7
sI62
I9
sI63
I13
sI64
I10
sI65
I6
sI66
I5
sI67
I9
sI68
I10
sI69
I12
sI70
I12
sI71
I8
sI72
I13
sI73
I8
sI74
I9
sI75
I12
sI76
I12
sI77
I4
sI78
I4
sI79
I4
sI80
I10
sI81
I10
sI82
I4
sI83
I4
sI84
I8
sI85
I12
sI86
I4
sI87
I10
sI88
I13
sI89
I10
sI90
I7
sI91
I13
sI92
I13
sI93
I13
sI94
I7
sI95
I9
sI96
I12
sI97
I7
sI98
I7
sI99
I7
sI100
I7
sI101
I14
sI102
I6
sI103
I15
sI104
I7
sI105
I9
sI106
I3
sI107
I16
sI108
I6
sI109
I15
sI110
I1
sI111
I0
sI112
I0
sI113
I7
sI114
I17
sI115
I3
sI116
I0
sI117
I11
sI118
I14
sI119
I17
sI120
I18
sI121
I0
sI122
I15
sI123
I6
sI124
I18
sI125
I17
sI126
I3
sI127
I1
sI128
I7
sI129
I14
sI130
I7
sI131
I16
sI132
I6
sI133
I18
sI134
I3
sI135
I11
sI136
I17
sI137
I7
sI138
I9
sI139
I19
sI140
I6
sI141
I16
sI142
I14
sI143
I20
sI144
I14
sI145
I6
sI146
I7
sI147
I15
sI148
I11
sI149
I15
sI150
I19
sI151
I9
sI152
I19
sI153
I17
sI154
I0
sI155
I1
sI156
I20
sI157
I1
sI158
I3
sI159
I20
sI160
I19
sI161
I1
sI162
I17
sI163
I20
sI164
I11
sI165
I16
sI166
I3
sI167
I17
sI168
I11
sI169
I19
sI170
I19
sI171
I0
sI172
I20
sI173
I0
sI174
I17
sI175
I19
sI176
I19
sI177
I9
sI178
I9
sI179
I9
sI180
I11
sI181
I11
sI182
I9
sI183
I9
sI184
I0
sI185
I19
sI186
I9
sI187
I11
sI188
I20
sI189
I11
sI190
I1
sI191
I20
sI192
I20
sI193
I20
sI194
I1
sI195
I17
sI196
I19
sI197
I1
sI198
I1
sI199
I1
sI200
I1
sa(dp2
I0
I0
sI1
I1
sI2
I2
sI3
I3
sI4
I4
sI5
I5
sI6
I6
sI7
I7
sI8
I8
sI9
I9
sI10
I2
sI11
I5
sI12
I10
sI13
I11
sI14
I12
sI15
I13
sI16
I14
sI17
I15
sI18
I14
sI19
I16
sI20
I17
sa.