(lp0
(dp1
I1
I0
sI2
I1
sI3
I2
sI4
I3
sI5
I4
sI6
I5
sI7
I6
sI8
I1
sI9
I2
sI10
I7
sI11
I8
sI12
I8
sI13
I3
sI14
I9
sI15
I5
sI16
I8
sI17
I10
sI18
I0
sI19
I9
sI20
I6
sI21
I8
sI22
I2
sI23
I1
sI24
I6
sI25
I9
sI26
I5
sI27
I7
sI28
I11
sI29
I0
sI30
I3
sI31
I6
sI32
I1
sI33
I6
sI34
I5
sI35
I10
sI36
I9
sI37
I3
sI38
I4
sI39
I12
sI40
I1
sI41
I6
sI42
I0
sI43
I13
sI44
I0
sI45
I1
sI46
I3
sI47
I2
sI48
I10
sI49
I2
sI50
I12
sI51
I4
sI52
I12
sI53
I9
sI54
I8
sI55
I7
sI56
I13
sI57
I7
sI58
I5
sI59
I13
sI60
I12
sI61
I7
sI62
I9
sI63
I13
sI64
I10
sI65
I6
sI66
I5
sI67
I9
sI68
I10
sI69
I12
sI70
I12
sI71
I8
sI72
I13
sI73
I8
sI74
I9
sI75
I12
sI76
I12
sI77
I4
sI78
I4
sI79
I4
sI80
I10
sI81
I10
sI82
I4
sI83
I4
sI84
I8
sI85
I12
sI86
I4
sI87
I10
sI88
I13
sI89
I10
sI90
I7
sI91
I13
sI92
I13
sI93
I13
sI94
I7
sI95
I9
sI96
I12
sI97
I7
sI98
I7
sI99
I7
sI100
I7
sI101
I14
sI102
I15
sI103
I16
sI104
I2
sI105
I11
sI106
I17
sI107
I9
sI108
I15
sI109
I16
sI110
I18
sI111
I1
sI112
I1
sI113
I2
sI114
I7
sI115
I17
sI116
I1
sI117
I19
sI118
I14
sI119
I7
sI120
I9
sI121
I1
sI122
I16
sI123
I15
sI124
I9
sI125
I7
sI126
I17
sI127
I18
sI128
I2
sI129
I14
sI130
I2
sI131
I9
sI132
I15
sI133
I9
sI134
I17
sI135
I19
sI136
I7
sI137
I2
sI138
I11
sI139
I20
sI140
I15
sI141
I9
sI142
I14
sI143
I21
sI144
I14
sI145
I15
sI146
I2
sI147
I16
sI148
I19
sI149
I16
sI150
I20
sI151
I11
sI152
I20
sI153
I7
sI154
I1
sI155
I18
sI156
I21
sI157
I18
sI158
I17
sI159
I21
sI160
I20
sI161
I18
sI162
I7
sI163
I21
sI164
I19
sI165
I9
sI166
I17
sI167
I7
sI168
I19
sI169
I20
sI170
I20
sI171
I1
sI172
I21
sI173
I1
sI174
I7
sI175
I20
sI176
I20
sI177
I11
sI178
I11
sI179
I11
sI180
I19
sI181
I19
sI182
I11
sI183
I11
sI184
I1
sI185
I20
sI186
I11
sI187
I19
sI188
I21
sI189
I19
sI190
I18
sI191
I21
sI192
I21
sI193
I21
sI194
I18
sI195
I7
sI196
I20
sI197
I18
sI198
I18
sI199
I18
sI200
I18
sa(dp2
I0
I0
sI1
I1
sI2
I2
sI3
I3
sI4
I4
sI5
I4
sI6
I5
sI7
I6
sI8
I7
sI9
I8
sI10
I9
sI11
I3
sI12
I10
sI13
I11
sI14
I12
sI15
I5
sI16
I13
sI17
I13
sI18
I14
sI19
I15
sI20
I16
sI21
I17
sa.