(lp0
(dp1
I1
I0
sI2
I1
sI3
I2
sI4
I3
sI5
I4
sI6
I5
sI7
I6
sI8
I1
sI9
I2
sI10
I7
sI11
I8
sI12
I9
sI13
I10
sI14
I11
sI15
I12
sI16
I8
sI17
I13
sI18
I0
sI19
I11
sI20
I6
sI21
I8
sI22
I2
sI23
I1
sI24
I6
sI25
I11
sI26
I5
sI27
I7
sI28
I10
sI29
I0
sI30
I10
sI31
I6
sI32
I1
sI33
I6
sI34
I5
sI35
I13
sI36
I11
sI37
I10
sI38
I4
sI39
I14
sI40
I1
sI41
I6
sI42
I0
sI43
I15
sI44
I0
sI45
I1
sI46
I10
sI47
I2
sI48
I13
sI49
I2
sI50
I14
sI51
I4
sI52
I14
sI53
I11
sI54
I8
sI55
I7
sI56
I15
sI57
I7
sI58
I5
sI59
I15
sI60
I14
sI61
I7
sI62
I11
sI63
I15
sI64
I13
sI65
I6
sI66
I5
sI67
I11
sI68
I13
sI69
I14
sI70
I14
sI71
I8
sI72
I15
sI73
I8
sI74
I11
sI75
I14
sI76
I14
sI77
I4
sI78
I4
sI79
I4
sI80
I13
sI81
I13
sI82
I4
sI83
I4
sI84
I8
sI85
I14
sI86
I4
sI87
I13
sI88
I15
sI89
I13
sI90
I7
sI91
I15
sI92
I15
sI93
I15
sI94
I7
sI95
I11
sI96
I14
sI97
I7
sI98
I7
sI99
I7
sI100
I7
sI101
I14
sI102
I5
sI103
I4
sI104
I16
sI105
I6
sI106
I13
sI107
I7
sI108
I11
sI109
I4
sI110
I17
sI111
I0
sI112
I0
sI113
I16
sI114
I2
sI115
I13
sI116
I0
sI117
I9
sI118
I8
sI119
I2
sI120
I7
sI121
I0
sI122
I4
sI123
I5
sI124
I7
sI125
I2
sI126
I13
sI127
I17
sI128
I16
sI129
I8
sI130
I16
sI131
I7
sI132
I5
sI133
I7
sI134
I13
sI135
I9
sI136
I2
sI137
I16
sI138
I6
sI139
I3
sI140
I5
sI141
I7
sI142
I8
sI143
I12
sI144
I8
sI145
I5
sI146
I16
sI147
I4
sI148
I9
sI149
I4
sI150
I3
sI151
I6
sI152
I3
sI153
I2
sI154
I0
sI155
I17
sI156
I12
sI157
I17
sI158
I13
sI159
I12
sI160
I3
sI161
I17
sI162
I2
sI163
I12
sI164
I9
sI165
I7
sI166
I13
sI167
I2
sI168
I9
sI169
I3
sI170
I3
sI171
I0
sI172
I12
sI173
I0
sI174
I2
sI175
I3
sI176
I3
sI177
I6
sI178
I6
sI179
I6
sI180
I9
sI181
I9
sI182
I6
sI183
I6
sI184
I0
sI185
I3
sI186
I6
sI187
I9
sI188
I12
sI189
I9
sI190
I17
sI191
I12
sI192
I12
sI193
I12
sI194
I17
sI195
I2
sI196
I3
sI197
I17
sI198
I17
sI199
I17
sI200
I17
sa(dp2
I0
I0
sI1
I1
sI2
I2
sI3
I3
sI4
I4
sI5
I5
sI6
I6
sI7
I7
sI8
I8
sI9
I8
sI10
I3
sI11
I5
sI12
I5
sI13
I9
sI14
I8
sI15
I10
sI16
I11
sI17
I12
sa.