(dp0
I1
I0
sI2
I1
sI3
I2
sI4
I3
sI5
I4
sI6
I2
sI7
I5
sI8
I1
sI9
I2
sI10
I6
sI11
I7
sI12
I7
sI13
I8
sI14
I9
sI15
I2
sI16
I7
sI17
I10
sI18
I11
sI19
I9
sI20
I5
sI21
I7
sI22
I2
sI23
I1
sI24
I5
sI25
I9
sI26
I2
sI27
I6
sI28
I8
sI29
I11
sI30
I8
sI31
I5
sI32
I1
sI33
I5
sI34
I2
sI35
I10
sI36
I9
sI37
I8
sI38
I4
sI39
I12
sI40
I1
sI41
I5
sI42
I11
sI43
I13
sI44
I11
sI45
I1
sI46
I8
sI47
I2
sI48
I10
sI49
I2
sI50
I12
sI51
I4
sI52
I12
sI53
I9
sI54
I7
sI55
I6
sI56
I13
sI57
I6
sI58
I2
sI59
I13
sI60
I12
sI61
I6
sI62
I9
sI63
I13
sI64
I10
sI65
I5
sI66
I2
sI67
I9
sI68
I10
sI69
I12
sI70
I12
sI71
I7
sI72
I13
sI73
I7
sI74
I9
sI75
I12
sI76
I12
sI77
I4
sI78
I4
sI79
I4
sI80
I10
sI81
I10
sI82
I4
sI83
I14
sI84
I7
sI85
I12
sI86
I4
sI87
I10
sI88
I13
sI89
I10
sI90
I6
sI91
I13
sI92
I13
sI93
I13
sI94
I6
sI95
I9
sI96
I12
sI97
I6
sI98
I6
sI99
I6
sI100
I6
sI101
I6
sI102
I15
sI103
I12
sI104
I13
sI105
I4
sI106
I11
sI107
I7
sI108
I15
sI109
I1
sI110
I9
sI111
I10
sI112
I10
sI113
I13
sI114
I11
sI115
I11
sI116
I10
sI117
I5
sI118
I6
sI119
I11
sI120
I14
sI121
I10
sI122
I12
sI123
I15
sI124
I14
sI125
I2
sI126
I11
sI127
I0
sI128
I13
sI129
I6
sI130
I13
sI131
I14
sI132
I15
sI133
I14
sI134
I11
sI135
I5
sI136
I11
sI137
I13
sI138
I4
sI139
I3
sI140
I15
sI141
I14
sI142
I6
sI143
I6
sI144
I6
sI145
I15
sI146
I13
sI147
I12
sI148
I5
sI149
I12
sI150
I3
sI151
I4
sI152
I3
sI153
I11
sI154
I8
sI155
I0
sI156
I6
sI157
I0
sI158
I11
sI159
I6
sI160
I3
sI161
I0
sI162
I11
sI163
I6
sI164
I5
sI165
I14
sI166
I11
sI167
I11
sI168
I5
sI169
I3
sI170
I3
sI171
I10
sI172
I6
sI173
I10
sI174
I11
sI175
I3
sI176
I3
sI177
I4
sI178
I4
sI179
I4
sI180
I5
sI181
I5
sI182
I4
sI183
I4
sI184
I10
sI185
I3
sI186
I4
sI187
I5
sI188
I6
sI189
I5
sI190
I0
sI191
I6
sI192
I6
sI193
I6
sI194
I0
sI195
I11
sI196
I3
sI197
I0
sI198
I0
sI199
I0
sI200
I0
s.