(lp0
(dp1
I1
I0
sI2
I1
sI3
I2
sI4
I3
sI5
I4
sI6
I5
sI7
I6
sI8
I7
sI9
I2
sI10
I8
sI11
I9
sI12
I9
sI13
I3
sI14
I10
sI15
I11
sI16
I9
sI17
I12
sI18
I0
sI19
I10
sI20
I13
sI21
I9
sI22
I2
sI23
I14
sI24
I6
sI25
I10
sI26
I11
sI27
I8
sI28
I3
sI29
I0
sI30
I3
sI31
I6
sI32
I14
sI33
I6
sI34
I11
sI35
I12
sI36
I10
sI37
I3
sI38
I4
sI39
I15
sI40
I14
sI41
I6
sI42
I0
sI43
I16
sI44
I0
sI45
I14
sI46
I3
sI47
I2
sI48
I12
sI49
I2
sI50
I15
sI51
I4
sI52
I15
sI53
I10
sI54
I9
sI55
I8
sI56
I16
sI57
I8
sI58
I11
sI59
I16
sI60
I15
sI61
I8
sI62
I10
sI63
I16
sI64
I12
sI65
I6
sI66
I11
sI67
I10
sI68
I12
sI69
I15
sI70
I15
sI71
I9
sI72
I16
sI73
I9
sI74
I10
sI75
I15
sI76
I15
sI77
I4
sI78
I4
sI79
I4
sI80
I12
sI81
I12
sI82
I4
sI83
I4
sI84
I9
sI85
I15
sI86
I4
sI87
I12
sI88
I16
sI89
I12
sI90
I8
sI91
I16
sI92
I16
sI93
I16
sI94
I8
sI95
I10
sI96
I15
sI97
I8
sI98
I8
sI99
I8
sI100
I8
sI101
I8
sI102
I3
sI103
I17
sI104
I11
sI105
I18
sI106
I15
sI107
I2
sI108
I10
sI109
I17
sI110
I0
sI111
I13
sI112
I16
sI113
I11
sI114
I7
sI115
I15
sI116
I13
sI117
I1
sI118
I8
sI119
I7
sI120
I2
sI121
I13
sI122
I17
sI123
I12
sI124
I2
sI125
I7
sI126
I15
sI127
I0
sI128
I11
sI129
I8
sI130
I11
sI131
I2
sI132
I12
sI133
I2
sI134
I15
sI135
I1
sI136
I7
sI137
I11
sI138
I18
sI139
I5
sI140
I12
sI141
I2
sI142
I8
sI143
I6
sI144
I8
sI145
I12
sI146
I11
sI147
I17
sI148
I1
sI149
I17
sI150
I5
sI151
I18
sI152
I5
sI153
I7
sI154
I13
sI155
I0
sI156
I6
sI157
I0
sI158
I15
sI159
I6
sI160
I5
sI161
I0
sI162
I7
sI163
I6
sI164
I1
sI165
I2
sI166
I15
sI167
I7
sI168
I1
sI169
I5
sI170
I5
sI171
I13
sI172
I6
sI173
I13
sI174
I7
sI175
I5
sI176
I5
sI177
I18
sI178
I18
sI179
I18
sI180
I1
sI181
I1
sI182
I18
sI183
I18
sI184
I13
sI185
I5
sI186
I18
sI187
I1
sI188
I6
sI189
I1
sI190
I0
sI191
I6
sI192
I6
sI193
I6
sI194
I0
sI195
I7
sI196
I5
sI197
I0
sI198
I0
sI199
I0
sI200
I0
sa(dp2
I0
I0
sI1
I1
sI2
I2
sI3
I1
sI4
I3
sI5
I4
sI6
I5
sI7
I6
sI8
I4
sI9
I7
sI10
I8
sI11
I1
sI12
I8
sI13
I5
sI14
I6
sI15
I9
sI16
I10
sI17
I11
sI18
I12
sa.