(lp0
ccopy_reg
_reconstructor
p1
(cnetworkx.classes.graph
Graph
p2
c__builtin__
object
p3
Ntp4
Rp5
(dp6
S'node'
p7
(dp8
I1
(dp9
sI2
(dp10
sI3
(dp11
sI4
(dp12
sI5
(dp13
sI6
(dp14
sI7
(dp15
sI8
(dp16
sI9
(dp17
sI10
(dp18
sI11
(dp19
sI12
(dp20
sI13
(dp21
sI14
(dp22
sI15
(dp23
sI16
(dp24
sI17
(dp25
sI18
(dp26
sI19
(dp27
sI20
(dp28
sI21
(dp29
sI22
(dp30
sI23
(dp31
sI24
(dp32
sI25
(dp33
sI26
(dp34
sI27
(dp35
sI28
(dp36
sI29
(dp37
sI30
(dp38
sI31
(dp39
sI32
(dp40
sI33
(dp41
sI34
(dp42
sI35
(dp43
sI36
(dp44
sI37
(dp45
sI38
(dp46
sI39
(dp47
sI40
(dp48
sI41
(dp49
sI42
(dp50
sI43
(dp51
sI44
(dp52
sI45
(dp53
sI46
(dp54
sI47
(dp55
sI48
(dp56
sI49
(dp57
sI50
(dp58
sI51
(dp59
sI52
(dp60
sI53
(dp61
sI54
(dp62
sI55
(dp63
sI56
(dp64
sI57
(dp65
sI58
(dp66
sI59
(dp67
sI60
(dp68
sI61
(dp69
sI62
(dp70
sI63
(dp71
sI64
(dp72
sI65
(dp73
sI66
(dp74
sI67
(dp75
sI68
(dp76
sI69
(dp77
sI70
(dp78
sI71
(dp79
sI72
(dp80
sI73
(dp81
sI74
(dp82
sI75
(dp83
sI76
(dp84
sI77
(dp85
sI78
(dp86
sI79
(dp87
sI80
(dp88
sI81
(dp89
sI82
(dp90
sI83
(dp91
sI84
(dp92
sI85
(dp93
sI86
(dp94
sI87
(dp95
sI88
(dp96
sI89
(dp97
sI90
(dp98
sI91
(dp99
sI92
(dp100
sI93
(dp101
sI94
(dp102
sI95
(dp103
sI96
(dp104
sI97
(dp105
sI98
(dp106
sI99
(dp107
sI100
(dp108
sI101
(dp109
sI102
(dp110
sI103
(dp111
sI104
(dp112
sI105
(dp113
sI106
(dp114
sI107
(dp115
sI108
(dp116
sI109
(dp117
sI110
(dp118
sI111
(dp119
sI112
(dp120
sI113
(dp121
sI114
(dp122
sI115
(dp123
sI116
(dp124
sI117
(dp125
sI118
(dp126
sI119
(dp127
sI120
(dp128
sI121
(dp129
sI122
(dp130
sI123
(dp131
sI124
(dp132
sI125
(dp133
sI126
(dp134
sI127
(dp135
sI128
(dp136
sI129
(dp137
sI130
(dp138
sI131
(dp139
sI132
(dp140
sI133
(dp141
sI134
(dp142
sI135
(dp143
sI136
(dp144
sI137
(dp145
sI138
(dp146
sI139
(dp147
sI140
(dp148
sI141
(dp149
sI142
(dp150
sI143
(dp151
sI144
(dp152
sI145
(dp153
sI146
(dp154
sI147
(dp155
sI148
(dp156
sI149
(dp157
sI150
(dp158
sI151
(dp159
sI152
(dp160
sI153
(dp161
sI154
(dp162
sI155
(dp163
sI156
(dp164
sI157
(dp165
sI158
(dp166
sI159
(dp167
sI160
(dp168
sI161
(dp169
sI162
(dp170
sI163
(dp171
sI164
(dp172
sI165
(dp173
sI166
(dp174
sI167
(dp175
sI168
(dp176
sI169
(dp177
sI170
(dp178
sI171
(dp179
sI172
(dp180
sI173
(dp181
sI174
(dp182
sI175
(dp183
sI176
(dp184
sI177
(dp185
sI178
(dp186
sI179
(dp187
sI180
(dp188
sI181
(dp189
sI182
(dp190
sI183
(dp191
sI184
(dp192
sI185
(dp193
sI186
(dp194
sI187
(dp195
sI188
(dp196
sI189
(dp197
sI190
(dp198
sI191
(dp199
sI192
(dp200
sI193
(dp201
sI194
(dp202
sI195
(dp203
sI196
(dp204
sI197
(dp205
sI198
(dp206
sI199
(dp207
sI200
(dp208
ssS'node_dict_factory'
p209
c__builtin__
dict
p210
sS'edge_attr_dict_factory'
p211
g210
sS'edge'
p212
(dp213
I1
(dp214
I18
(dp215
sI44
(dp216
sI42
(dp217
sI29
(dp218
ssI2
(dp219
I32
(dp220
sI8
(dp221
sI45
(dp222
sI115
(dp223
sI23
(dp224
sI123
(dp225
ssI3
(dp226
I9
(dp227
sI47
(dp228
sI22
(dp229
sI49
(dp230
ssI4
(dp231
I192
(dp232
sI37
(dp233
sI13
(dp234
sI46
(dp235
sI145
(dp236
sI115
(dp237
sI116
(dp238
sI154
(dp239
sI28
(dp240
ssI5
(dp241
I82
(dp242
sI78
(dp243
sI86
(dp244
sI79
(dp245
ssI6
(dp246
I26
(dp247
sI34
(dp248
sI66
(dp249
sI58
(dp250
ssI7
(dp251
I24
(dp252
sI41
(dp253
sI31
(dp254
sI65
(dp255
ssI8
(dp256
I2
g221
sI132
(dp257
sI133
(dp258
sI40
(dp259
sI45
(dp260
sI81
(dp261
sI165
(dp262
ssI9
(dp263
I49
(dp264
sI3
g227
sI22
(dp265
sI47
(dp266
ssI10
(dp267
I97
(dp268
sI98
(dp269
sI100
(dp270
sI126
(dp271
sI94
(dp272
ssI11
(dp273
I16
(dp274
sI73
(dp275
sI84
(dp276
sI133
(dp277
sI71
(dp278
ssI12
(dp279
I165
(dp280
sI71
(dp281
sI73
(dp282
sI170
(dp283
sI84
(dp284
sI54
(dp285
ssI13
(dp286
I30
(dp287
sI4
g234
sI37
(dp288
sI46
(dp289
sI173
(dp290
ssI14
(dp291
I160
(dp292
sI67
(dp293
sI74
(dp294
sI53
(dp295
sI95
(dp296
sI159
(dp297
ssI15
(dp298
I26
(dp299
sI34
(dp300
sI66
(dp301
sI58
(dp302
ssI16
(dp303
I11
g274
sI84
(dp304
sI131
(dp305
sI54
(dp306
sI71
(dp307
ssI17
(dp308
I80
(dp309
sI89
(dp310
sI47
(dp311
sI87
(dp312
ssI18
(dp313
I1
g215
sI42
(dp314
sI44
(dp315
sI29
(dp316
ssI19
(dp317
I67
(dp318
sI172
(dp319
sI131
(dp320
sI185
(dp321
sI25
(dp322
sI62
(dp323
sI95
(dp324
ssI20
(dp325
I24
(dp326
sI33
(dp327
sI41
(dp328
sI65
(dp329
ssI21
(dp330
I120
(dp331
sI73
(dp332
sI84
(dp333
sI54
(dp334
sI71
(dp335
ssI22
(dp336
I9
g265
sI3
g229
sI47
(dp337
sI49
(dp338
ssI23
(dp339
I32
(dp340
sI2
g224
sI165
(dp341
sI40
(dp342
sI108
(dp343
sI45
(dp344
ssI24
(dp345
I33
(dp346
sI20
g326
sI65
(dp347
sI7
g252
ssI25
(dp348
I163
(dp349
sI67
(dp350
sI19
g322
sI74
(dp351
sI95
(dp352
ssI26
(dp353
I58
(dp354
sI66
(dp355
sI6
g247
sI15
g299
ssI27
(dp356
I193
(dp357
sI98
(dp358
sI99
(dp359
sI100
(dp360
sI134
(dp361
sI90
(dp362
ssI28
(dp363
I112
(dp364
sI30
(dp365
sI4
g240
sI37
(dp366
sI46
(dp367
ssI29
(dp368
I1
g218
sI18
g316
sI44
(dp369
sI42
(dp370
ssI30
(dp371
I193
(dp372
sI107
(dp373
sI37
(dp374
sI171
(dp375
sI13
g287
sI46
(dp376
sI115
(dp377
sI123
(dp378
sI28
g365
ssI31
(dp379
I41
(dp380
sI65
(dp381
sI7
g254
ssI32
(dp382
I40
(dp383
sI2
g220
sI140
(dp384
sI45
(dp385
sI23
g340
ssI33
(dp386
I24
g346
sI41
(dp387
sI20
g327
sI65
(dp388
ssI34
(dp389
I58
(dp390
sI83
(dp391
sI66
(dp392
sI6
g248
sI15
g300
ssI35
(dp393
I64
(dp394
sI81
(dp395
sI87
(dp396
sI68
(dp397
sI89
(dp398
ssI36
(dp399
I67
(dp400
sI133
(dp401
sI74
(dp402
sI143
(dp403
sI145
(dp404
sI53
(dp405
sI62
(dp406
sI95
(dp407
ssI37
(dp408
I131
(dp409
sI4
g233
sI13
g288
sI46
(dp410
sI111
(dp411
sI163
(dp412
sI28
g366
sI30
g374
ssI38
(dp413
I82
(dp414
sI83
(dp415
sI77
(dp416
sI86
(dp417
sI79
(dp418
ssI39
(dp419
I96
(dp420
sI52
(dp421
sI76
(dp422
sI69
(dp423
sI85
(dp424
ssI40
(dp425
I32
g383
sI102
(dp426
sI8
g259
sI172
(dp427
sI45
(dp428
sI23
g342
sI93
(dp429
ssI41
(dp430
I33
g387
sI31
g380
sI20
g328
sI65
(dp431
sI7
g253
ssI42
(dp432
I1
g217
sI18
g314
sI44
(dp433
sI29
g370
sI100
(dp434
ssI43
(dp435
I173
(dp436
sI88
(dp437
sI56
(dp438
sI185
(dp439
sI152
(dp440
sI91
(dp441
sI92
(dp442
sI93
(dp443
ssI44
(dp444
I1
g216
sI18
g315
sI42
g433
sI29
g369
sI70
(dp445
ssI45
(dp446
I32
g385
sI2
g222
sI145
(dp447
sI8
g260
sI40
g428
sI23
g344
ssI46
(dp448
I4
g235
sI37
g410
sI166
(dp449
sI13
g289
sI184
(dp450
sI121
(dp451
sI28
g367
sI30
g376
ssI47
(dp452
I9
g266
sI3
g228
sI49
(dp453
sI22
g337
sI17
g311
ssI48
(dp454
I80
(dp455
sI81
(dp456
sI87
(dp457
sI68
(dp458
sI89
(dp459
ssI49
(dp460
I9
g264
sI58
(dp461
sI3
g230
sI22
g338
sI47
g453
ssI50
(dp462
I96
(dp463
sI75
(dp464
sI76
(dp465
sI85
(dp466
sI70
(dp467
ssI51
(dp468
I73
(dp469
sI82
(dp470
sI83
(dp471
sI78
(dp472
sI86
(dp473
ssI52
(dp474
I96
(dp475
sI69
(dp476
sI70
(dp477
sI39
g421
sI75
(dp478
sI85
(dp479
ssI53
(dp480
I193
(dp481
sI36
g405
sI74
(dp482
sI14
g295
sI126
(dp483
sI150
(dp484
sI184
(dp485
sI63
(dp486
sI62
(dp487
sI95
(dp488
ssI54
(dp489
I163
(dp490
sI71
(dp491
sI73
(dp492
sI107
(dp493
sI12
g285
sI16
g306
sI84
(dp494
sI21
g334
ssI55
(dp495
I97
(dp496
sI98
(dp497
sI99
(dp498
sI100
(dp499
sI115
(dp500
sI120
(dp501
sI90
(dp502
sI94
(dp503
ssI56
(dp504
I160
(dp505
sI131
(dp506
sI133
(dp507
sI72
(dp508
sI43
g438
sI108
(dp509
sI88
(dp510
sI91
(dp511
sI92
(dp512
sI93
(dp513
ssI57
(dp514
I97
(dp515
sI98
(dp516
sI99
(dp517
sI100
(dp518
sI115
(dp519
sI90
(dp520
sI94
(dp521
ssI58
(dp522
I66
(dp523
sI6
g250
sI34
g390
sI15
g302
sI49
g461
sI26
g354
ssI59
(dp524
I72
(dp525
sI175
(dp526
sI88
(dp527
sI91
(dp528
sI92
(dp529
sI93
(dp530
sI63
(dp531
ssI60
(dp532
I96
(dp533
sI69
(dp534
sI70
(dp535
sI75
(dp536
sI76
(dp537
sI85
(dp538
ssI61
(dp539
I97
(dp540
sI98
(dp541
sI99
(dp542
sI100
(dp543
sI134
(dp544
sI111
(dp545
sI90
(dp546
sI94
(dp547
ssI62
(dp548
I67
(dp549
sI36
g406
sI74
(dp550
sI140
(dp551
sI19
g323
sI53
g487
sI188
(dp552
sI158
(dp553
sI95
(dp554
ssI63
(dp555
I59
g531
sI188
(dp556
sI170
(dp557
sI107
(dp558
sI53
g486
sI88
(dp559
sI91
(dp560
sI92
(dp561
sI93
(dp562
ssI64
(dp563
I35
g394
sI68
(dp564
sI80
(dp565
sI81
(dp566
sI87
(dp567
sI89
(dp568
ssI65
(dp569
I33
g388
sI7
g255
sI41
g431
sI20
g329
sI24
g347
sI31
g381
ssI66
(dp570
I34
g392
sI6
g249
sI77
(dp571
sI15
g301
sI26
g355
sI58
g523
ssI67
(dp572
I192
(dp573
sI36
g400
sI74
(dp574
sI14
g293
sI19
g318
sI25
g350
sI62
g549
sI95
(dp575
ssI68
(dp576
I64
g564
sI80
(dp577
sI35
g397
sI48
g458
sI81
(dp578
sI87
(dp579
sI89
(dp580
ssI69
(dp581
I96
(dp582
sI70
(dp583
sI39
g423
sI75
(dp584
sI52
g476
sI85
(dp585
sI60
g534
ssI70
(dp586
I96
(dp587
sI69
g583
sI76
(dp588
sI44
g445
sI50
g467
sI52
g477
sI60
g535
ssI71
(dp589
I73
(dp590
sI11
g278
sI12
g281
sI141
(dp591
sI16
g307
sI84
(dp592
sI21
g335
sI54
g491
ssI72
(dp593
I59
g525
sI176
(dp594
sI88
(dp595
sI87
(dp596
sI56
g508
sI91
(dp597
sI92
(dp598
sI93
(dp599
ssI73
(dp600
I71
g590
sI11
g275
sI12
g282
sI173
(dp601
sI51
g469
sI84
(dp602
sI21
g332
sI54
g492
sI120
(dp603
ssI74
(dp604
I67
g574
sI36
g402
sI14
g294
sI53
g482
sI25
g351
sI191
(dp605
sI62
g550
sI95
(dp606
ssI75
(dp607
I96
(dp608
sI69
g584
sI76
(dp609
sI50
g464
sI52
g478
sI85
(dp610
sI60
g536
ssI76
(dp611
I96
(dp612
sI70
g588
sI39
g422
sI75
g609
sI50
g465
sI85
(dp613
sI60
g537
ssI77
(dp614
I66
g571
sI38
g416
sI78
(dp615
sI79
(dp616
sI82
(dp617
sI83
(dp618
sI86
(dp619
ssI78
(dp620
I51
g472
sI5
g243
sI77
g615
sI79
(dp621
sI82
(dp622
sI83
(dp623
sI86
(dp624
ssI79
(dp625
I5
g245
sI38
g418
sI77
g616
sI78
g621
sI82
(dp626
sI83
(dp627
sI86
(dp628
ssI80
(dp629
I64
g565
sI68
g577
sI81
(dp630
sI48
g455
sI17
g309
sI87
(dp631
sI88
(dp632
sI89
(dp633
ssI81
(dp634
I64
g566
sI80
g630
sI35
g395
sI68
g578
sI8
g261
sI48
g456
sI87
(dp635
sI89
(dp636
ssI82
(dp637
I83
(dp638
sI5
g242
sI38
g414
sI77
g617
sI78
g622
sI79
g626
sI51
g470
sI86
(dp639
ssI83
(dp640
I34
g391
sI38
g415
sI77
g618
sI78
g623
sI79
g627
sI82
g638
sI51
g471
sI86
(dp641
ssI84
(dp642
I102
(dp643
sI71
g592
sI73
g602
sI11
g276
sI12
g284
sI16
g304
sI124
(dp644
sI21
g333
sI54
g494
sI92
(dp645
ssI85
(dp646
I96
(dp647
sI69
g585
sI39
g424
sI75
g610
sI76
g613
sI50
g466
sI52
g479
sI60
g538
ssI86
(dp648
I83
g641
sI5
g244
sI38
g417
sI77
g619
sI78
g624
sI79
g628
sI82
g639
sI51
g473
sI89
(dp649
ssI87
(dp650
I64
g567
sI80
g631
sI35
g396
sI68
g579
sI81
g635
sI72
g596
sI48
g457
sI17
g312
sI89
(dp651
ssI88
(dp652
I91
(dp653
sI196
(dp654
sI72
g595
sI43
g437
sI80
g632
sI123
(dp655
sI56
g510
sI59
g527
sI92
(dp656
sI93
(dp657
sI63
g559
ssI89
(dp658
I64
g568
sI80
g633
sI35
g398
sI68
g580
sI81
g636
sI48
g459
sI17
g310
sI86
g649
sI87
g651
ssI90
(dp659
I97
(dp660
sI98
(dp661
sI99
(dp662
sI100
(dp663
sI106
(dp664
sI171
(dp665
sI112
(dp666
sI55
g502
sI57
g520
sI27
g362
sI61
g546
sI94
(dp667
sI159
(dp668
ssI91
(dp669
I97
(dp670
sI139
(dp671
sI72
g597
sI156
(dp672
sI43
g441
sI88
g653
sI56
g511
sI59
g528
sI92
(dp673
sI93
(dp674
sI63
g560
ssI92
(dp675
I91
g673
sI72
g598
sI106
(dp676
sI43
g442
sI88
g656
sI84
g645
sI150
(dp677
sI56
g512
sI59
g529
sI93
(dp678
sI63
g561
ssI93
(dp679
I91
g674
sI40
g429
sI184
(dp680
sI43
g443
sI72
g599
sI169
(dp681
sI56
g513
sI88
g657
sI59
g530
sI92
g678
sI63
g562
ssI94
(dp682
I97
(dp683
sI98
(dp684
sI99
(dp685
sI100
(dp686
sI165
(dp687
sI10
g272
sI55
g503
sI57
g521
sI90
g667
sI123
(dp688
sI61
g547
sI158
(dp689
ssI95
(dp690
I67
g575
sI36
g407
sI74
g606
sI14
g296
sI99
(dp691
sI19
g324
sI53
g488
sI25
g352
sI123
(dp692
sI156
(dp693
sI62
g554
ssI96
(dp694
I69
g582
sI70
g587
sI39
g420
sI75
g608
sI76
g612
sI50
g463
sI52
g475
sI85
g647
sI60
g533
ssI97
(dp695
I98
(dp696
sI99
(dp697
sI100
(dp698
sI10
g268
sI107
(dp699
sI126
(dp700
sI55
g496
sI57
g515
sI90
g660
sI91
g670
sI124
(dp701
sI61
g540
sI94
g683
ssI98
(dp702
I97
g696
sI99
(dp703
sI100
(dp704
sI166
(dp705
sI10
g269
sI55
g497
sI152
(dp706
sI57
g516
sI90
g661
sI27
g358
sI61
g541
sI94
g684
ssI99
(dp707
I97
g697
sI98
g703
sI100
(dp708
sI166
(dp709
sI141
(dp710
sI55
g498
sI57
g517
sI90
g662
sI27
g359
sI61
g542
sI94
g685
sI95
g691
ssI100
(dp711
I97
g698
sI98
g704
sI99
g708
sI10
g270
sI42
g434
sI106
(dp712
sI55
g499
sI57
g518
sI90
g663
sI27
g360
sI61
g543
sI94
g686
ssI101
(dp713
I144
(dp714
sI129
(dp715
sI118
(dp716
sI142
(dp717
ssI102
(dp718
I132
(dp719
sI40
g426
sI108
(dp720
sI145
(dp721
sI84
g643
sI123
(dp722
ssI103
(dp723
I122
(dp724
sI147
(dp725
sI109
(dp726
sI149
(dp727
ssI104
(dp728
I128
(dp729
sI113
(dp730
sI146
(dp731
sI137
(dp732
ssI105
(dp733
I178
(dp734
sI179
(dp735
sI186
(dp736
sI182
(dp737
ssI106
(dp738
I100
g712
sI166
(dp739
sI134
(dp740
sI158
(dp741
sI90
g664
sI92
g676
sI126
(dp742
ssI107
(dp743
I97
g699
sI131
(dp744
sI165
(dp745
sI141
(dp746
sI54
g493
sI124
(dp747
sI30
g373
sI63
g558
ssI108
(dp748
I102
g720
sI140
(dp749
sI145
(dp750
sI181
(dp751
sI23
g343
sI56
g509
ssI109
(dp752
I122
(dp753
sI147
(dp754
sI149
(dp755
sI103
g726
ssI110
(dp756
I200
(dp757
sI194
(dp758
sI197
(dp759
sI198
(dp760
ssI111
(dp761
I37
g411
sI171
(dp762
sI173
(dp763
sI116
(dp764
sI184
(dp765
sI61
g545
ssI112
(dp766
I171
(dp767
sI173
(dp768
sI184
(dp769
sI90
g666
sI28
g364
sI154
(dp770
ssI113
(dp771
I104
g730
sI137
(dp772
sI130
(dp773
sI146
(dp774
ssI114
(dp775
I153
(dp776
sI195
(dp777
sI174
(dp778
sI167
(dp779
ssI115
(dp780
I2
g223
sI4
g237
sI166
(dp781
sI134
(dp782
sI30
g377
sI158
(dp783
sI55
g500
sI57
g519
sI126
(dp784
ssI116
(dp785
I184
(dp786
sI154
(dp787
sI171
(dp788
sI4
g238
sI111
g764
ssI117
(dp789
I147
(dp790
sI180
(dp791
sI187
(dp792
sI189
(dp793
ssI118
(dp794
I144
(dp795
sI129
(dp796
sI101
g716
sI142
(dp797
ssI119
(dp798
I162
(dp799
sI195
(dp800
sI125
(dp801
sI167
(dp802
ssI120
(dp803
I165
(dp804
sI73
g603
sI141
(dp805
sI21
g331
sI55
g501
sI124
(dp806
sI133
(dp807
ssI121
(dp808
I184
(dp809
sI154
(dp810
sI171
(dp811
sI173
(dp812
sI46
g451
ssI122
(dp813
I149
(dp814
sI147
(dp815
sI109
g753
sI103
g724
ssI123
(dp816
I2
g225
sI132
(dp817
sI102
g722
sI140
(dp818
sI145
(dp819
sI94
g688
sI88
g655
sI30
g378
sI95
g692
ssI124
(dp820
I97
g701
sI133
(dp821
sI107
g747
sI84
g644
sI120
g806
sI165
(dp822
ssI125
(dp823
I167
(dp824
sI174
(dp825
sI195
(dp826
sI119
g801
ssI126
(dp827
I97
g700
sI166
(dp828
sI10
g271
sI115
g784
sI53
g483
sI106
g742
sI158
(dp829
ssI127
(dp830
I200
(dp831
sI190
(dp832
sI198
(dp833
sI199
(dp834
ssI128
(dp835
I104
g729
sI137
(dp836
sI130
(dp837
sI146
(dp838
ssI129
(dp839
I144
(dp840
sI101
g715
sI118
g796
sI142
(dp841
ssI130
(dp842
I128
g837
sI113
g773
sI146
(dp843
sI137
(dp844
ssI131
(dp845
I37
g409
sI107
g744
sI141
(dp846
sI16
g305
sI19
g320
sI56
g506
sI165
(dp847
ssI132
(dp848
I8
g257
sI145
(dp849
sI123
g817
sI140
(dp850
sI102
g719
ssI133
(dp851
I36
g401
sI165
(dp852
sI8
g258
sI11
g277
sI141
(dp853
sI56
g507
sI120
g807
sI124
g821
ssI134
(dp854
I166
(dp855
sI106
g740
sI115
g782
sI183
(dp856
sI27
g361
sI61
g544
sI158
(dp857
ssI135
(dp858
I168
(dp859
sI187
(dp860
sI164
(dp861
sI181
(dp862
sI189
(dp863
ssI136
(dp864
I153
(dp865
sI162
(dp866
sI195
(dp867
sI174
(dp868
sI167
(dp869
ssI137
(dp870
I104
g732
sI113
g772
sI128
g836
sI130
g844
sI146
(dp871
ssI138
(dp872
I177
(dp873
sI186
(dp874
sI179
(dp875
sI182
(dp876
sI183
(dp877
ssI139
(dp878
I196
(dp879
sI169
(dp880
sI176
(dp881
sI152
(dp882
sI185
(dp883
sI91
g671
ssI140
(dp884
I32
g384
sI193
(dp885
sI132
g850
sI108
g749
sI145
(dp886
sI123
g818
sI62
g551
ssI141
(dp887
I131
g846
sI133
g853
sI71
g591
sI107
g746
sI99
g710
sI120
g805
sI165
(dp888
ssI142
(dp889
I144
(dp890
sI129
g841
sI200
(dp891
sI101
g717
sI118
g797
ssI143
(dp892
I192
(dp893
sI193
(dp894
sI36
g403
sI188
(dp895
sI156
(dp896
sI191
(dp897
ssI144
(dp898
I129
g840
sI170
(dp899
sI101
g714
sI118
g795
sI142
g890
ssI145
(dp900
I132
g849
sI102
g721
sI108
g750
sI140
g886
sI45
g447
sI4
g236
sI123
g819
sI36
g404
ssI146
(dp901
I104
g731
sI113
g774
sI128
g838
sI130
g843
sI137
g871
ssI147
(dp902
I149
(dp903
sI122
g815
sI117
g790
sI109
g754
sI103
g725
ssI148
(dp904
I168
(dp905
sI187
(dp906
sI180
(dp907
sI181
(dp908
sI189
(dp909
ssI149
(dp910
I122
g814
sI147
g903
sI109
g755
sI158
(dp911
sI103
g727
ssI150
(dp912
I196
(dp913
sI170
(dp914
sI175
(dp915
sI176
(dp916
sI53
g484
sI185
(dp917
sI92
g677
ssI151
(dp918
I178
(dp919
sI183
(dp920
sI186
(dp921
sI182
(dp922
sI173
(dp923
ssI152
(dp924
I98
g706
sI43
g440
sI196
(dp925
sI169
(dp926
sI170
(dp927
sI139
g882
sI175
(dp928
sI185
(dp929
ssI153
(dp930
I162
(dp931
sI163
(dp932
sI136
g865
sI174
(dp933
sI114
g776
sI195
(dp934
ssI154
(dp935
I4
g239
sI171
(dp936
sI173
(dp937
sI112
g770
sI116
g787
sI184
(dp938
sI121
g810
ssI155
(dp939
I194
(dp940
sI197
(dp941
sI198
(dp942
sI199
(dp943
sI200
(dp944
sI190
(dp945
ssI156
(dp946
I192
(dp947
sI193
(dp948
sI95
g693
sI172
(dp949
sI143
g896
sI91
g672
sI188
(dp950
sI191
(dp951
ssI157
(dp952
I194
(dp953
sI197
(dp954
sI198
(dp955
sI199
(dp956
sI200
(dp957
sI190
(dp958
ssI158
(dp959
I134
g857
sI166
(dp960
sI106
g741
sI62
g553
sI94
g689
sI115
g783
sI149
g911
sI126
g829
ssI159
(dp961
I192
(dp962
sI193
(dp963
sI163
(dp964
sI172
(dp965
sI14
g297
sI90
g668
sI188
(dp966
sI191
(dp967
ssI160
(dp968
I196
(dp969
sI169
(dp970
sI170
(dp971
sI14
g292
sI175
(dp972
sI176
(dp973
sI56
g505
sI185
(dp974
ssI161
(dp975
I194
(dp976
sI197
(dp977
sI198
(dp978
sI199
(dp979
sI200
(dp980
sI190
(dp981
ssI162
(dp982
I195
(dp983
sI167
(dp984
sI136
g866
sI174
(dp985
sI119
g799
sI153
g931
ssI163
(dp986
I192
(dp987
sI193
(dp988
sI37
g412
sI54
g490
sI25
g349
sI153
g932
sI159
g964
sI188
(dp989
sI191
(dp990
ssI164
(dp991
I135
g861
sI168
(dp992
sI180
(dp993
sI181
(dp994
sI187
(dp995
sI189
(dp996
ssI165
(dp997
I131
g847
sI133
g852
sI8
g262
sI107
g745
sI12
g280
sI141
g888
sI23
g341
sI120
g804
sI124
g822
sI94
g687
ssI166
(dp998
I98
g705
sI99
g709
sI134
g855
sI106
g739
sI46
g449
sI177
(dp999
sI115
g781
sI158
g960
sI126
g828
ssI167
(dp1000
I162
g984
sI195
(dp1001
sI136
g869
sI174
(dp1002
sI114
g779
sI119
g802
sI125
g824
ssI168
(dp1003
I164
g992
sI135
g859
sI180
(dp1004
sI181
(dp1005
sI148
g905
sI187
(dp1006
sI189
(dp1007
ssI169
(dp1008
I160
g970
sI196
(dp1009
sI170
(dp1010
sI139
g880
sI175
(dp1011
sI152
g926
sI185
(dp1012
sI93
g681
ssI170
(dp1013
I160
g971
sI176
(dp1014
sI196
(dp1015
sI169
g1010
sI12
g283
sI144
g899
sI150
g914
sI152
g927
sI63
g557
ssI171
(dp1016
I173
(dp1017
sI111
g762
sI112
g767
sI116
g788
sI184
(dp1018
sI121
g811
sI154
g936
sI90
g665
sI30
g375
ssI172
(dp1019
I192
(dp1020
sI193
(dp1021
sI40
g427
sI188
(dp1022
sI191
(dp1023
sI19
g319
sI187
(dp1024
sI156
g949
sI159
g965
ssI173
(dp1025
I43
g436
sI73
g601
sI171
g1017
sI13
g290
sI111
g763
sI112
g768
sI151
g923
sI184
(dp1026
sI121
g812
sI154
g937
ssI174
(dp1027
I162
g985
sI195
(dp1028
sI167
g1002
sI136
g868
sI114
g778
sI153
g933
sI125
g825
ssI175
(dp1029
I160
g972
sI196
(dp1030
sI169
g1011
sI176
(dp1031
sI150
g915
sI152
g928
sI185
(dp1032
sI59
g526
ssI176
(dp1033
I160
g973
sI196
(dp1034
sI72
g594
sI170
g1014
sI139
g881
sI175
g1031
sI150
g916
sI185
(dp1035
ssI177
(dp1036
I166
g999
sI138
g873
sI178
(dp1037
sI179
(dp1038
sI182
(dp1039
sI183
(dp1040
sI186
(dp1041
ssI178
(dp1042
I105
g734
sI151
g919
sI177
g1037
sI179
(dp1043
sI182
(dp1044
sI183
(dp1045
sI186
(dp1046
ssI179
(dp1047
I105
g735
sI138
g875
sI177
g1038
sI178
g1043
sI182
(dp1048
sI183
(dp1049
sI186
(dp1050
ssI180
(dp1051
I164
g993
sI168
g1004
sI148
g907
sI117
g791
sI187
(dp1052
sI188
(dp1053
sI189
(dp1054
sI181
(dp1055
ssI181
(dp1056
I164
g994
sI135
g862
sI168
g1005
sI108
g751
sI148
g908
sI180
g1055
sI187
(dp1057
sI189
(dp1058
ssI182
(dp1059
I105
g737
sI138
g876
sI183
(dp1060
sI177
g1039
sI178
g1044
sI179
g1048
sI151
g922
sI186
(dp1061
ssI183
(dp1062
I134
g856
sI138
g877
sI177
g1040
sI178
g1045
sI179
g1049
sI182
g1060
sI151
g920
sI186
(dp1063
ssI184
(dp1064
I192
(dp1065
sI171
g1018
sI173
g1026
sI46
g450
sI111
g765
sI112
g769
sI116
g786
sI53
g485
sI121
g809
sI154
g938
sI93
g680
ssI185
(dp1066
I160
g974
sI43
g439
sI196
(dp1067
sI169
g1012
sI139
g883
sI175
g1032
sI176
g1035
sI19
g321
sI150
g917
sI152
g929
ssI186
(dp1068
I105
g736
sI138
g874
sI183
g1063
sI177
g1041
sI178
g1046
sI179
g1050
sI182
g1061
sI151
g921
sI189
(dp1069
ssI187
(dp1070
I164
g995
sI135
g860
sI168
g1006
sI172
g1024
sI148
g906
sI117
g792
sI180
g1052
sI189
(dp1071
sI181
g1057
ssI188
(dp1072
I192
(dp1073
sI193
(dp1074
sI163
g989
sI63
g556
sI172
g1022
sI143
g895
sI180
g1053
sI191
(dp1075
sI156
g950
sI62
g552
sI159
g966
ssI189
(dp1076
I164
g996
sI135
g863
sI168
g1007
sI180
g1054
sI117
g793
sI148
g909
sI186
g1069
sI187
g1071
sI181
g1058
ssI190
(dp1077
I161
g981
sI194
(dp1078
sI197
(dp1079
sI198
(dp1080
sI199
(dp1081
sI200
(dp1082
sI155
g945
sI157
g958
sI127
g832
ssI191
(dp1083
I192
(dp1084
sI193
(dp1085
sI163
g990
sI197
(dp1086
sI156
g951
sI74
g605
sI172
g1023
sI143
g897
sI188
g1075
sI159
g967
ssI192
(dp1087
I193
(dp1088
sI163
g987
sI4
g232
sI188
g1073
sI172
g1020
sI143
g893
sI67
g573
sI184
g1065
sI191
g1084
sI156
g947
sI159
g962
ssI193
(dp1089
I192
g1088
sI163
g988
sI140
g885
sI172
g1021
sI143
g894
sI27
g357
sI188
g1074
sI53
g481
sI191
g1085
sI156
g948
sI30
g372
sI159
g963
ssI194
(dp1090
I161
g976
sI197
(dp1091
sI198
(dp1092
sI199
(dp1093
sI200
(dp1094
sI110
g758
sI155
g940
sI157
g953
sI190
g1078
ssI195
(dp1095
I162
g983
sI167
g1001
sI136
g867
sI199
(dp1096
sI174
g1028
sI114
g777
sI119
g800
sI153
g934
sI125
g826
ssI196
(dp1097
I160
g969
sI169
g1009
sI170
g1015
sI139
g879
sI175
g1030
sI176
g1034
sI88
g654
sI150
g913
sI152
g925
sI185
g1067
ssI197
(dp1098
I161
g977
sI194
g1091
sI198
(dp1099
sI199
(dp1100
sI200
(dp1101
sI110
g759
sI155
g941
sI157
g954
sI190
g1079
sI191
g1086
ssI198
(dp1102
I161
g978
sI194
g1092
sI197
g1099
sI199
(dp1103
sI200
(dp1104
sI110
g760
sI155
g942
sI157
g955
sI190
g1080
sI127
g833
ssI199
(dp1105
I161
g979
sI194
g1093
sI195
g1096
sI197
g1100
sI198
g1103
sI200
(dp1106
sI155
g943
sI157
g956
sI190
g1081
sI127
g834
ssI200
(dp1107
I161
g980
sI194
g1094
sI197
g1101
sI198
g1104
sI199
g1106
sI142
g891
sI110
g757
sI155
g944
sI157
g957
sI190
g1082
sI127
g831
sssS'graph'
p1108
(dp1109
sS'adjlist_dict_factory'
p1110
g210
sS'adj'
p1111
g213
sba(dp1112
I1
c__builtin__
set
p1113
((lp1114
I1
aI2
aI3
aI4
aI5
aI6
aI7
aI8
aI9
aI10
aI11
aI12
aI13
aI14
aI15
aI16
aI17
aI18
aI19
aI20
aI21
aI22
aI23
aI24
aI25
aI26
aI27
aI28
aI29
aI30
aI31
aI32
aI33
aI34
aI35
aI36
aI37
aI38
aI39
aI40
aI41
aI42
aI43
aI44
aI45
aI46
aI47
aI48
aI49
aI50
aI51
aI52
aI53
aI54
aI55
aI56
aI57
aI58
aI59
aI60
aI61
aI62
aI63
aI64
aI65
aI66
aI67
aI68
aI69
aI70
aI71
aI72
aI73
aI74
aI75
aI76
aI77
aI78
aI79
aI80
aI81
aI82
aI83
aI84
aI85
aI86
aI87
aI88
aI89
aI90
aI91
aI92
aI93
aI94
aI95
aI96
aI97
aI98
aI99
aI100
atp1115
Rp1116
sI2
g1113
((lp1117
I101
aI102
aI103
aI104
aI105
aI106
aI107
aI108
aI109
aI110
aI111
aI112
aI113
aI114
aI115
aI116
aI117
aI118
aI119
aI120
aI121
aI122
aI123
aI124
aI125
aI126
aI127
aI128
aI129
aI130
aI131
aI132
aI133
aI134
aI135
aI136
aI137
aI138
aI139
aI140
aI141
aI142
aI143
aI144
aI145
aI146
aI147
aI148
aI149
aI150
aI151
aI152
aI153
aI154
aI155
aI156
aI157
aI158
aI159
aI160
aI161
aI162
aI163
aI164
aI165
aI166
aI167
aI168
aI169
aI170
aI171
aI172
aI173
aI174
aI175
aI176
aI177
aI178
aI179
aI180
aI181
aI182
aI183
aI184
aI185
aI186
aI187
aI188
aI189
aI190
aI191
aI192
aI193
aI194
aI195
aI196
aI197
aI198
aI199
aI200
atp1118
Rp1119
sa(dp1120
I1
g1113
((lp1121
I18
aI42
aI44
aI29
atp1122
Rp1123
sI2
g1113
((lp1124
I8
aI32
aI45
aI23
atp1125
Rp1126
sI3
g1113
((lp1127
I9
aI49
aI22
aI47
atp1128
Rp1129
sI4
g1113
((lp1130
I28
aI13
aI46
aI37
atp1131
Rp1132
sI5
g1113
((lp1133
I82
aI86
aI78
aI79
atp1134
Rp1135
sI6
g1113
((lp1136
I26
aI58
aI66
aI34
atp1137
Rp1138
sI7
g1113
((lp1139
I24
aI41
aI65
aI31
atp1140
Rp1141
sI8
g1113
((lp1142
I40
aI81
aI2
aI45
atp1143
Rp1144
sI9
g1113
((lp1145
I49
aI3
aI22
aI47
atp1146
Rp1147
sI10
g1113
((lp1148
I97
aI98
aI100
aI94
atp1149
Rp1150
sI11
g1113
((lp1151
I16
aI73
aI84
aI71
atp1152
Rp1153
sI12
g1113
((lp1154
I73
aI84
aI54
aI71
atp1155
Rp1156
sI13
g1113
((lp1157
I46
aI4
aI37
aI30
atp1158
Rp1159
sI14
g1113
((lp1160
I74
aI67
aI53
aI95
atp1161
Rp1162
sI15
g1113
((lp1163
I26
aI58
aI66
aI34
atp1164
Rp1165
sI16
g1113
((lp1166
I11
aI84
aI54
aI71
atp1167
Rp1168
sI17
g1113
((lp1169
I80
aI89
aI87
aI47
atp1170
Rp1171
sI18
g1113
((lp1172
I1
aI42
aI44
aI29
atp1173
Rp1174
sI19
g1113
((lp1175
I25
aI67
aI62
aI95
atp1176
Rp1177
sI20
g1113
((lp1178
I24
aI33
aI65
aI41
atp1179
Rp1180
sI21
g1113
((lp1181
I73
aI84
aI54
aI71
atp1182
Rp1183
sI22
g1113
((lp1184
I9
aI3
aI49
aI47
atp1185
Rp1186
sI23
g1113
((lp1187
I32
aI40
aI2
aI45
atp1188
Rp1189
sI24
g1113
((lp1190
I33
aI20
aI65
aI7
atp1191
Rp1192
sI25
g1113
((lp1193
I67
aI19
aI74
aI95
atp1194
Rp1195
sI26
g1113
((lp1196
I58
aI66
aI6
aI15
atp1197
Rp1198
sI27
g1113
((lp1199
I90
aI99
aI100
aI98
atp1200
Rp1201
sI28
g1113
((lp1202
I46
aI4
aI37
aI30
atp1203
Rp1204
sI29
g1113
((lp1205
I1
aI18
aI44
aI42
atp1206
Rp1207
sI30
g1113
((lp1208
I28
aI13
aI46
aI37
atp1209
Rp1210
sI31
g1113
((lp1211
I41
aI65
aI7
atp1212
Rp1213
sI32
g1113
((lp1214
I40
aI2
aI45
aI23
atp1215
Rp1216
sI33
g1113
((lp1217
I24
aI41
aI20
aI65
atp1218
Rp1219
sI34
g1113
((lp1220
I58
aI83
aI66
aI6
aI15
atp1221
Rp1222
sI35
g1113
((lp1223
I64
aI81
aI68
aI89
aI87
atp1224
Rp1225
sI36
g1113
((lp1226
I74
aI67
aI53
aI62
aI95
atp1227
Rp1228
sI37
g1113
((lp1229
I28
aI46
aI4
aI13
aI30
atp1230
Rp1231
sI38
g1113
((lp1232
I82
aI83
aI77
aI86
aI79
atp1233
Rp1234
sI39
g1113
((lp1235
I96
aI76
aI52
aI69
aI85
atp1236
Rp1237
sI40
g1113
((lp1238
I8
aI32
aI45
aI93
aI23
atp1239
Rp1240
sI41
g1113
((lp1241
I33
aI31
aI20
aI65
aI7
atp1242
Rp1243
sI42
g1113
((lp1244
I1
aI18
aI44
aI29
aI100
atp1245
Rp1246
sI43
g1113
((lp1247
I56
aI88
aI91
aI92
aI93
atp1248
Rp1249
sI44
g1113
((lp1250
I1
aI18
aI42
aI29
aI70
atp1251
Rp1252
sI45
g1113
((lp1253
I8
aI32
aI2
aI40
aI23
atp1254
Rp1255
sI46
g1113
((lp1256
I28
aI4
aI13
aI30
aI37
atp1257
Rp1258
sI47
g1113
((lp1259
I9
aI3
aI49
aI22
aI17
atp1260
Rp1261
sI48
g1113
((lp1262
I80
aI81
aI68
aI89
aI87
atp1263
Rp1264
sI49
g1113
((lp1265
I9
aI58
aI3
aI22
aI47
atp1266
Rp1267
sI50
g1113
((lp1268
I96
aI75
aI76
aI85
aI70
atp1269
Rp1270
sI51
g1113
((lp1271
I73
aI82
aI83
aI86
aI78
atp1272
Rp1273
sI52
g1113
((lp1274
I96
aI69
aI70
aI39
aI75
aI85
atp1275
Rp1276
sI53
g1113
((lp1277
I36
aI74
aI14
aI63
aI62
aI95
atp1278
Rp1279
sI54
g1113
((lp1280
I71
aI73
aI12
aI16
aI84
aI21
atp1281
Rp1282
sI55
g1113
((lp1283
I97
aI98
aI99
aI100
aI90
aI94
atp1284
Rp1285
sI56
g1113
((lp1286
I72
aI43
aI88
aI91
aI92
aI93
atp1287
Rp1288
sI57
g1113
((lp1289
I97
aI98
aI99
aI100
aI90
aI94
atp1290
Rp1291
sI58
g1113
((lp1292
I66
aI6
aI34
aI15
aI49
aI26
atp1293
Rp1294
sI59
g1113
((lp1295
I72
aI88
aI91
aI92
aI93
aI63
atp1296
Rp1297
sI60
g1113
((lp1298
I96
aI69
aI70
aI75
aI76
aI85
atp1299
Rp1300
sI61
g1113
((lp1301
I97
aI98
aI99
aI100
aI90
aI94
atp1302
Rp1303
sI62
g1113
((lp1304
I67
aI36
aI74
aI19
aI53
aI95
atp1305
Rp1306
sI63
g1113
((lp1307
I59
aI53
aI88
aI91
aI92
aI93
atp1308
Rp1309
sI64
g1113
((lp1310
I35
aI68
aI80
aI81
aI87
aI89
atp1311
Rp1312
sI65
g1113
((lp1313
I33
aI7
aI41
aI20
aI24
aI31
atp1314
Rp1315
sI66
g1113
((lp1316
I34
aI6
aI77
aI15
aI26
aI58
atp1317
Rp1318
sI67
g1113
((lp1319
I36
aI74
aI14
aI19
aI25
aI62
aI95
atp1320
Rp1321
sI68
g1113
((lp1322
I64
aI80
aI35
aI48
aI81
aI87
aI89
atp1323
Rp1324
sI69
g1113
((lp1325
I96
aI70
aI39
aI75
aI52
aI85
aI60
atp1326
Rp1327
sI70
g1113
((lp1328
I96
aI69
aI44
aI76
aI50
aI52
aI60
atp1329
Rp1330
sI71
g1113
((lp1331
I73
aI11
aI12
aI16
aI84
aI21
aI54
atp1332
Rp1333
sI72
g1113
((lp1334
I59
aI88
aI87
aI56
aI91
aI92
aI93
atp1335
Rp1336
sI73
g1113
((lp1337
I71
aI11
aI12
aI51
aI84
aI21
aI54
atp1338
Rp1339
sI74
g1113
((lp1340
I67
aI36
aI14
aI53
aI25
aI62
aI95
atp1341
Rp1342
sI75
g1113
((lp1343
I96
aI69
aI76
aI50
aI52
aI85
aI60
atp1344
Rp1345
sI76
g1113
((lp1346
I96
aI70
aI39
aI75
aI50
aI85
aI60
atp1347
Rp1348
sI77
g1113
((lp1349
I66
aI38
aI78
aI79
aI82
aI83
aI86
atp1350
Rp1351
sI78
g1113
((lp1352
I51
aI5
aI77
aI79
aI82
aI83
aI86
atp1353
Rp1354
sI79
g1113
((lp1355
I5
aI38
aI77
aI78
aI82
aI83
aI86
atp1356
Rp1357
sI80
g1113
((lp1358
I64
aI68
aI81
aI48
aI17
aI87
aI88
aI89
atp1359
Rp1360
sI81
g1113
((lp1361
I64
aI80
aI35
aI68
aI8
aI48
aI87
aI89
atp1362
Rp1363
sI82
g1113
((lp1364
I83
aI5
aI38
aI77
aI78
aI79
aI51
aI86
atp1365
Rp1366
sI83
g1113
((lp1367
I34
aI38
aI77
aI78
aI79
aI82
aI51
aI86
atp1368
Rp1369
sI84
g1113
((lp1370
I71
aI73
aI11
aI12
aI16
aI21
aI54
aI92
atp1371
Rp1372
sI85
g1113
((lp1373
I96
aI69
aI39
aI75
aI76
aI50
aI52
aI60
atp1374
Rp1375
sI86
g1113
((lp1376
I83
aI5
aI38
aI77
aI78
aI79
aI82
aI51
aI89
atp1377
Rp1378
sI87
g1113
((lp1379
I64
aI80
aI35
aI68
aI81
aI72
aI48
aI17
aI89
atp1380
Rp1381
sI88
g1113
((lp1382
I91
aI72
aI43
aI80
aI56
aI59
aI92
aI93
aI63
atp1383
Rp1384
sI89
g1113
((lp1385
I64
aI80
aI35
aI68
aI81
aI48
aI17
aI86
aI87
atp1386
Rp1387
sI90
g1113
((lp1388
I97
aI98
aI99
aI100
aI55
aI57
aI27
aI61
aI94
atp1389
Rp1390
sI91
g1113
((lp1391
I97
aI72
aI43
aI88
aI56
aI59
aI92
aI93
aI63
atp1392
Rp1393
sI92
g1113
((lp1394
I91
aI72
aI43
aI88
aI84
aI56
aI59
aI93
aI63
atp1395
Rp1396
sI93
g1113
((lp1397
I91
aI40
aI43
aI72
aI56
aI88
aI59
aI92
aI63
atp1398
Rp1399
sI94
g1113
((lp1400
I97
aI98
aI99
aI100
aI10
aI55
aI57
aI90
aI61
atp1401
Rp1402
sI95
g1113
((lp1403
I67
aI36
aI74
aI14
aI99
aI19
aI53
aI25
aI62
atp1404
Rp1405
sI96
g1113
((lp1406
I69
aI70
aI39
aI75
aI76
aI50
aI52
aI85
aI60
atp1407
Rp1408
sI97
g1113
((lp1409
I98
aI99
aI100
aI10
aI55
aI57
aI90
aI91
aI61
aI94
atp1410
Rp1411
sI98
g1113
((lp1412
I97
aI99
aI100
aI10
aI55
aI57
aI90
aI27
aI61
aI94
atp1413
Rp1414
sI99
g1113
((lp1415
I97
aI98
aI100
aI55
aI57
aI90
aI27
aI61
aI94
aI95
atp1416
Rp1417
sI100
g1113
((lp1418
I97
aI98
aI99
aI10
aI42
aI55
aI57
aI90
aI27
aI61
aI94
atp1419
Rp1420
sI101
g1113
((lp1421
I144
aI129
aI142
aI118
atp1422
Rp1423
sI102
g1113
((lp1424
I132
aI123
aI108
aI145
atp1425
Rp1426
sI103
g1113
((lp1427
I122
aI147
aI109
aI149
atp1428
Rp1429
sI104
g1113
((lp1430
I128
aI113
aI146
aI137
atp1431
Rp1432
sI105
g1113
((lp1433
I178
aI179
aI186
aI182
atp1434
Rp1435
sI106
g1113
((lp1436
I166
aI134
aI126
aI158
atp1437
Rp1438
sI107
g1113
((lp1439
I131
aI124
aI141
aI165
atp1440
Rp1441
sI108
g1113
((lp1442
I145
aI140
aI181
aI102
atp1443
Rp1444
sI109
g1113
((lp1445
I122
aI147
aI149
aI103
atp1446
Rp1447
sI110
g1113
((lp1448
I200
aI194
aI197
aI198
atp1449
Rp1450
sI111
g1113
((lp1451
I184
aI171
aI116
aI173
atp1452
Rp1453
sI112
g1113
((lp1454
I184
aI154
aI171
aI173
atp1455
Rp1456
sI113
g1113
((lp1457
I104
aI137
aI130
aI146
atp1458
Rp1459
sI114
g1113
((lp1460
I153
aI195
aI174
aI167
atp1461
Rp1462
sI115
g1113
((lp1463
I166
aI134
aI126
aI158
atp1464
Rp1465
sI116
g1113
((lp1466
I184
aI154
aI171
aI111
atp1467
Rp1468
sI117
g1113
((lp1469
I147
aI180
aI187
aI189
atp1470
Rp1471
sI118
g1113
((lp1472
I144
aI129
aI101
aI142
atp1473
Rp1474
sI119
g1113
((lp1475
I162
aI195
aI125
aI167
atp1476
Rp1477
sI120
g1113
((lp1478
I165
aI124
aI133
aI141
atp1479
Rp1480
sI121
g1113
((lp1481
I184
aI154
aI171
aI173
atp1482
Rp1483
sI122
g1113
((lp1484
I149
aI147
aI109
aI103
atp1485
Rp1486
sI123
g1113
((lp1487
I140
aI132
aI102
aI145
atp1488
Rp1489
sI124
g1113
((lp1490
I120
aI107
aI133
aI165
atp1491
Rp1492
sI125
g1113
((lp1493
I167
aI195
aI174
aI119
atp1494
Rp1495
sI126
g1113
((lp1496
I106
aI115
aI166
aI158
atp1497
Rp1498
sI127
g1113
((lp1499
I200
aI198
aI190
aI199
atp1500
Rp1501
sI128
g1113
((lp1502
I104
aI137
aI130
aI146
atp1503
Rp1504
sI129
g1113
((lp1505
I144
aI101
aI118
aI142
atp1506
Rp1507
sI130
g1113
((lp1508
I128
aI113
aI146
aI137
atp1509
Rp1510
sI131
g1113
((lp1511
I107
aI141
aI165
atp1512
Rp1513
sI132
g1113
((lp1514
I145
aI123
aI140
aI102
atp1515
Rp1516
sI133
g1113
((lp1517
I120
aI124
aI141
aI165
atp1518
Rp1519
sI134
g1113
((lp1520
I106
aI115
aI166
aI158
aI183
atp1521
Rp1522
sI135
g1113
((lp1523
I168
aI187
aI164
aI181
aI189
atp1524
Rp1525
sI136
g1113
((lp1526
I153
aI162
aI195
aI174
aI167
atp1527
Rp1528
sI137
g1113
((lp1529
I104
aI113
aI128
aI130
aI146
atp1530
Rp1531
sI138
g1113
((lp1532
I177
aI186
aI179
aI182
aI183
atp1533
Rp1534
sI139
g1113
((lp1535
I152
aI169
aI176
aI196
aI185
atp1536
Rp1537
sI140
g1113
((lp1538
I132
aI193
aI123
aI108
aI145
atp1539
Rp1540
sI141
g1113
((lp1541
I120
aI107
aI131
aI133
aI165
atp1542
Rp1543
sI142
g1113
((lp1544
I144
aI129
aI200
aI101
aI118
atp1545
Rp1546
sI143
g1113
((lp1547
I192
aI188
aI193
aI156
aI191
atp1548
Rp1549
sI144
g1113
((lp1550
I129
aI170
aI101
aI118
aI142
atp1551
Rp1552
sI145
g1113
((lp1553
I132
aI140
aI123
aI108
aI102
atp1554
Rp1555
sI146
g1113
((lp1556
I104
aI113
aI128
aI130
aI137
atp1557
Rp1558
sI147
g1113
((lp1559
I149
aI122
aI117
aI109
aI103
atp1560
Rp1561
sI148
g1113
((lp1562
I168
aI187
aI180
aI181
aI189
atp1563
Rp1564
sI149
g1113
((lp1565
I122
aI147
aI109
aI158
aI103
atp1566
Rp1567
sI150
g1113
((lp1568
I176
aI185
aI170
aI196
aI175
atp1569
Rp1570
sI151
g1113
((lp1571
I178
aI186
aI173
aI182
aI183
atp1572
Rp1573
sI152
g1113
((lp1574
I196
aI169
aI170
aI139
aI175
aI185
atp1575
Rp1576
sI153
g1113
((lp1577
I162
aI163
aI136
aI174
aI114
aI195
atp1578
Rp1579
sI154
g1113
((lp1580
I171
aI173
aI112
aI116
aI184
aI121
atp1581
Rp1582
sI155
g1113
((lp1583
I194
aI197
aI198
aI199
aI200
aI190
atp1584
Rp1585
sI156
g1113
((lp1586
I192
aI193
aI172
aI143
aI188
aI191
atp1587
Rp1588
sI157
g1113
((lp1589
I194
aI197
aI198
aI199
aI200
aI190
atp1590
Rp1591
sI158
g1113
((lp1592
I134
aI166
aI106
aI115
aI149
aI126
atp1593
Rp1594
sI159
g1113
((lp1595
I192
aI193
aI163
aI172
aI188
aI191
atp1596
Rp1597
sI160
g1113
((lp1598
I196
aI169
aI170
aI175
aI176
aI185
atp1599
Rp1600
sI161
g1113
((lp1601
I194
aI197
aI198
aI199
aI200
aI190
atp1602
Rp1603
sI162
g1113
((lp1604
I195
aI167
aI136
aI174
aI119
aI153
atp1605
Rp1606
sI163
g1113
((lp1607
I192
aI193
aI153
aI159
aI188
aI191
atp1608
Rp1609
sI164
g1113
((lp1610
I135
aI168
aI180
aI181
aI187
aI189
atp1611
Rp1612
sI165
g1113
((lp1613
I131
aI133
aI107
aI141
aI120
aI124
atp1614
Rp1615
sI166
g1113
((lp1616
I134
aI106
aI177
aI115
aI158
aI126
atp1617
Rp1618
sI167
g1113
((lp1619
I162
aI195
aI136
aI174
aI114
aI119
aI125
atp1620
Rp1621
sI168
g1113
((lp1622
I164
aI135
aI180
aI181
aI148
aI187
aI189
atp1623
Rp1624
sI169
g1113
((lp1625
I160
aI196
aI170
aI139
aI175
aI152
aI185
atp1626
Rp1627
sI170
g1113
((lp1628
I160
aI176
aI196
aI169
aI144
aI150
aI152
atp1629
Rp1630
sI171
g1113
((lp1631
I173
aI111
aI112
aI116
aI184
aI121
aI154
atp1632
Rp1633
sI172
g1113
((lp1634
I192
aI193
aI156
aI159
aI187
aI188
aI191
atp1635
Rp1636
sI173
g1113
((lp1637
I171
aI111
aI112
aI151
aI184
aI121
aI154
atp1638
Rp1639
sI174
g1113
((lp1640
I162
aI195
aI167
aI136
aI114
aI153
aI125
atp1641
Rp1642
sI175
g1113
((lp1643
I160
aI196
aI169
aI176
aI150
aI152
aI185
atp1644
Rp1645
sI176
g1113
((lp1646
I160
aI196
aI170
aI139
aI175
aI150
aI185
atp1647
Rp1648
sI177
g1113
((lp1649
I166
aI138
aI178
aI179
aI182
aI183
aI186
atp1650
Rp1651
sI178
g1113
((lp1652
I105
aI151
aI177
aI179
aI182
aI183
aI186
atp1653
Rp1654
sI179
g1113
((lp1655
I105
aI138
aI177
aI178
aI182
aI183
aI186
atp1656
Rp1657
sI180
g1113
((lp1658
I164
aI168
aI148
aI117
aI187
aI188
aI189
aI181
atp1659
Rp1660
sI181
g1113
((lp1661
I164
aI135
aI168
aI108
aI148
aI180
aI187
aI189
atp1662
Rp1663
sI182
g1113
((lp1664
I105
aI138
aI183
aI177
aI178
aI179
aI151
aI186
atp1665
Rp1666
sI183
g1113
((lp1667
I134
aI138
aI177
aI178
aI179
aI182
aI151
aI186
atp1668
Rp1669
sI184
g1113
((lp1670
I192
aI171
aI173
aI111
aI112
aI116
aI121
aI154
atp1671
Rp1672
sI185
g1113
((lp1673
I160
aI196
aI169
aI139
aI175
aI176
aI150
aI152
atp1674
Rp1675
sI186
g1113
((lp1676
I105
aI138
aI183
aI177
aI178
aI179
aI182
aI151
aI189
atp1677
Rp1678
sI187
g1113
((lp1679
I164
aI135
aI168
aI172
aI148
aI117
aI180
aI189
aI181
atp1680
Rp1681
sI188
g1113
((lp1682
I192
aI193
aI163
aI172
aI143
aI180
aI191
aI156
aI159
atp1683
Rp1684
sI189
g1113
((lp1685
I164
aI135
aI168
aI180
aI117
aI148
aI186
aI187
aI181
atp1686
Rp1687
sI190
g1113
((lp1688
I161
aI194
aI197
aI198
aI199
aI200
aI155
aI157
aI127
atp1689
Rp1690
sI191
g1113
((lp1691
I192
aI193
aI163
aI197
aI156
aI172
aI143
aI188
aI159
atp1692
Rp1693
sI192
g1113
((lp1694
I193
aI163
aI188
aI172
aI143
aI184
aI191
aI156
aI159
atp1695
Rp1696
sI193
g1113
((lp1697
I192
aI163
aI140
aI172
aI143
aI188
aI191
aI156
aI159
atp1698
Rp1699
sI194
g1113
((lp1700
I161
aI197
aI198
aI199
aI200
aI110
aI155
aI157
aI190
atp1701
Rp1702
sI195
g1113
((lp1703
I162
aI167
aI136
aI199
aI174
aI114
aI119
aI153
aI125
atp1704
Rp1705
sI196
g1113
((lp1706
I160
aI169
aI170
aI139
aI175
aI176
aI150
aI152
aI185
atp1707
Rp1708
sI197
g1113
((lp1709
I161
aI194
aI198
aI199
aI200
aI110
aI155
aI157
aI190
aI191
atp1710
Rp1711
sI198
g1113
((lp1712
I161
aI194
aI197
aI199
aI200
aI110
aI155
aI157
aI190
aI127
atp1713
Rp1714
sI199
g1113
((lp1715
I161
aI194
aI195
aI197
aI198
aI200
aI155
aI157
aI190
aI127
atp1716
Rp1717
sI200
g1113
((lp1718
I161
aI194
aI197
aI198
aI199
aI142
aI110
aI155
aI157
aI190
aI127
atp1719
Rp1720
sa(dp1721
I2
g1113
((lp1722
I115
aI123
atp1723
Rp1724
sI4
g1113
((lp1725
I192
aI145
aI154
aI115
aI116
atp1726
Rp1727
sI8
g1113
((lp1728
I132
aI133
aI165
atp1729
Rp1730
sI10
g1113
((lp1731
I126
atp1732
Rp1733
sI11
g1113
((lp1734
I133
atp1735
Rp1736
sI12
g1113
((lp1737
I170
aI165
atp1738
Rp1739
sI13
g1113
((lp1740
I173
atp1741
Rp1742
sI14
g1113
((lp1743
I160
aI159
atp1744
Rp1745
sI16
g1113
((lp1746
I131
atp1747
Rp1748
sI19
g1113
((lp1749
I185
aI131
aI172
atp1750
Rp1751
sI21
g1113
((lp1752
I120
atp1753
Rp1754
sI23
g1113
((lp1755
I108
aI165
atp1756
Rp1757
sI25
g1113
((lp1758
I163
atp1759
Rp1760
sI27
g1113
((lp1761
I193
aI134
atp1762
Rp1763
sI28
g1113
((lp1764
I112
atp1765
Rp1766
sI30
g1113
((lp1767
I123
aI193
aI171
aI107
aI115
atp1768
Rp1769
sI32
g1113
((lp1770
I140
atp1771
Rp1772
sI36
g1113
((lp1773
I145
aI133
aI143
atp1774
Rp1775
sI37
g1113
((lp1776
I131
aI163
aI111
atp1777
Rp1778
sI40
g1113
((lp1779
I172
aI102
atp1780
Rp1781
sI43
g1113
((lp1782
I152
aI185
aI173
atp1783
Rp1784
sI45
g1113
((lp1785
I145
atp1786
Rp1787
sI46
g1113
((lp1788
I184
aI121
aI166
atp1789
Rp1790
sI53
g1113
((lp1791
I184
aI193
aI126
aI150
atp1792
Rp1793
sI54
g1113
((lp1794
I107
aI163
atp1795
Rp1796
sI55
g1113
((lp1797
I120
aI115
atp1798
Rp1799
sI56
g1113
((lp1800
I160
aI131
aI108
aI133
atp1801
Rp1802
sI57
g1113
((lp1803
I115
atp1804
Rp1805
sI59
g1113
((lp1806
I175
atp1807
Rp1808
sI61
g1113
((lp1809
I134
aI111
atp1810
Rp1811
sI62
g1113
((lp1812
I140
aI188
aI158
atp1813
Rp1814
sI63
g1113
((lp1815
I170
aI107
aI188
atp1816
Rp1817
sI67
g1113
((lp1818
I192
atp1819
Rp1820
sI71
g1113
((lp1821
I141
atp1822
Rp1823
sI72
g1113
((lp1824
I176
atp1825
Rp1826
sI73
g1113
((lp1827
I120
aI173
atp1828
Rp1829
sI74
g1113
((lp1830
I191
atp1831
Rp1832
sI84
g1113
((lp1833
I124
aI102
atp1834
Rp1835
sI88
g1113
((lp1836
I123
aI196
atp1837
Rp1838
sI90
g1113
((lp1839
I112
aI106
aI171
aI159
atp1840
Rp1841
sI91
g1113
((lp1842
I139
aI156
atp1843
Rp1844
sI92
g1113
((lp1845
I106
aI150
atp1846
Rp1847
sI93
g1113
((lp1848
I184
aI169
atp1849
Rp1850
sI94
g1113
((lp1851
I123
aI165
aI158
atp1852
Rp1853
sI95
g1113
((lp1854
I123
aI156
atp1855
Rp1856
sI97
g1113
((lp1857
I107
aI124
aI126
atp1858
Rp1859
sI98
g1113
((lp1860
I152
aI166
atp1861
Rp1862
sI99
g1113
((lp1863
I141
aI166
atp1864
Rp1865
sI100
g1113
((lp1866
I106
atp1867
Rp1868
sI102
g1113
((lp1869
I40
aI84
atp1870
Rp1871
sI106
g1113
((lp1872
I92
aI90
aI100
atp1873
Rp1874
sI107
g1113
((lp1875
I97
aI30
aI54
aI63
atp1876
Rp1877
sI108
g1113
((lp1878
I56
aI23
atp1879
Rp1880
sI111
g1113
((lp1881
I37
aI61
atp1882
Rp1883
sI112
g1113
((lp1884
I90
aI28
atp1885
Rp1886
sI115
g1113
((lp1887
I57
aI2
aI4
aI30
aI55
atp1888
Rp1889
sI116
g1113
((lp1890
I4
atp1891
Rp1892
sI120
g1113
((lp1893
I73
aI21
aI55
atp1894
Rp1895
sI121
g1113
((lp1896
I46
atp1897
Rp1898
sI123
g1113
((lp1899
I88
aI2
aI30
aI94
aI95
atp1900
Rp1901
sI124
g1113
((lp1902
I97
aI84
atp1903
Rp1904
sI126
g1113
((lp1905
I97
aI10
aI53
atp1906
Rp1907
sI131
g1113
((lp1908
I16
aI56
aI19
aI37
atp1909
Rp1910
sI132
g1113
((lp1911
I8
atp1912
Rp1913
sI133
g1113
((lp1914
I8
aI56
aI11
aI36
atp1915
Rp1916
sI134
g1113
((lp1917
I27
aI61
atp1918
Rp1919
sI139
g1113
((lp1920
I91
atp1921
Rp1922
sI140
g1113
((lp1923
I32
aI62
atp1924
Rp1925
sI141
g1113
((lp1926
I99
aI71
atp1927
Rp1928
sI143
g1113
((lp1929
I36
atp1930
Rp1931
sI145
g1113
((lp1932
I36
aI4
aI45
atp1933
Rp1934
sI150
g1113
((lp1935
I92
aI53
atp1936
Rp1937
sI152
g1113
((lp1938
I98
aI43
atp1939
Rp1940
sI154
g1113
((lp1941
I4
atp1942
Rp1943
sI156
g1113
((lp1944
I91
aI95
atp1945
Rp1946
sI158
g1113
((lp1947
I62
aI94
atp1948
Rp1949
sI159
g1113
((lp1950
I90
aI14
atp1951
Rp1952
sI160
g1113
((lp1953
I56
aI14
atp1954
Rp1955
sI163
g1113
((lp1956
I25
aI37
aI54
atp1957
Rp1958
sI165
g1113
((lp1959
I8
aI12
aI94
aI23
atp1960
Rp1961
sI166
g1113
((lp1962
I98
aI99
aI46
atp1963
Rp1964
sI169
g1113
((lp1965
I93
atp1966
Rp1967
sI170
g1113
((lp1968
I12
aI63
atp1969
Rp1970
sI171
g1113
((lp1971
I90
aI30
atp1972
Rp1973
sI172
g1113
((lp1974
I40
aI19
atp1975
Rp1976
sI173
g1113
((lp1977
I73
aI43
aI13
atp1978
Rp1979
sI175
g1113
((lp1980
I59
atp1981
Rp1982
sI176
g1113
((lp1983
I72
atp1984
Rp1985
sI184
g1113
((lp1986
I93
aI46
aI53
atp1987
Rp1988
sI185
g1113
((lp1989
I19
aI43
atp1990
Rp1991
sI188
g1113
((lp1992
I62
aI63
atp1993
Rp1994
sI191
g1113
((lp1995
I74
atp1996
Rp1997
sI192
g1113
((lp1998
I67
aI4
atp1999
Rp2000
sI193
g1113
((lp2001
I27
aI53
aI30
atp2002
Rp2003
sI196
g1113
((lp2004
I88
atp2005
Rp2006
sa(dp2007
I1
I1
sa(dp2008
I1
I2
sa(dp2009
I1
g1113
((lp2010
I1
aI2
aI3
aI4
aI5
aI6
aI7
aI8
aI9
aI10
aI11
aI12
aI13
aI14
aI15
aI16
aI17
aI18
aI19
aI20
aI21
aI22
aI23
aI24
aI25
aI26
aI27
aI28
aI29
aI30
aI31
aI32
aI33
aI34
aI35
aI36
aI37
aI38
aI39
aI40
aI41
aI42
aI43
aI44
aI45
aI46
aI47
aI48
aI49
aI50
aI51
aI52
aI53
aI54
aI55
aI56
aI57
aI58
aI59
aI60
aI61
aI62
aI63
aI64
aI65
aI66
aI67
aI68
aI69
aI70
aI71
aI72
aI73
aI74
aI75
aI76
aI77
aI78
aI79
aI80
aI81
aI82
aI83
aI84
aI85
aI86
aI87
aI88
aI89
aI90
aI91
aI92
aI93
aI94
aI95
aI96
aI97
aI98
aI99
aI100
aI101
aI102
aI103
aI104
aI105
aI106
aI107
aI108
aI109
aI110
aI111
aI112
aI113
aI114
aI115
aI116
aI117
aI118
aI119
aI120
aI121
aI122
aI123
aI124
aI125
aI126
aI127
aI128
aI129
aI130
aI131
aI132
aI133
aI134
aI135
aI136
aI137
aI138
aI139
aI140
aI141
aI142
aI143
aI144
aI145
aI146
aI147
aI148
aI149
aI150
aI151
aI152
aI153
aI154
aI155
aI156
aI157
aI158
aI159
aI160
aI161
aI162
aI163
aI164
aI165
aI166
aI167
aI168
aI169
aI170
aI171
aI172
aI173
aI174
aI175
aI176
aI177
aI178
aI179
aI180
aI181
aI182
aI183
aI184
aI185
aI186
aI187
aI188
aI189
aI190
aI191
aI192
aI193
aI194
aI195
aI196
aI197
aI198
aI199
aI200
atp2011
Rp2012
sa(dp2013
I1
I590
sI2
I590
sa(dp2014
I1
I104
saI0
a(dp2015
I1
g1113
((lp2016
I4
aI37
aI171
aI13
aI46
aI111
aI112
aI173
aI116
aI184
aI121
aI154
aI28
aI30
atp2017
Rp2018
sI2
g1113
((lp2019
I160
aI91
aI196
aI72
aI169
aI170
aI43
aI175
aI176
aI88
aI139
aI150
aI56
aI185
aI152
aI59
aI92
aI93
aI63
atp2020
Rp2021
sI3
g1113
((lp2022
I192
aI193
aI67
aI36
aI163
aI188
aI74
aI172
aI191
aI14
aI143
aI19
aI53
aI25
aI159
aI156
aI62
aI95
atp2023
Rp2024
sI4
g1113
((lp2025
I97
aI98
aI99
aI100
aI166
aI134
aI10
aI126
aI158
aI115
aI106
aI55
aI57
aI90
aI27
aI61
aI94
atp2026
Rp2027
sI5
g1113
((lp2028
I32
aI2
aI132
aI102
aI145
aI8
aI140
aI108
aI45
aI40
aI23
aI123
atp2029
Rp2030
sI6
g1113
((lp2031
I107
aI133
aI71
aI73
aI11
aI12
aI141
aI16
aI131
aI84
aI21
aI54
aI120
aI124
aI165
atp2032
Rp2033
sI7
g1113
((lp2034
I66
aI6
aI34
aI15
aI26
aI58
atp2035
Rp2036
sI8
g1113
((lp2037
I1
aI18
aI42
aI44
aI29
atp2038
Rp2039
sI9
g1113
((lp2040
I9
aI3
aI49
aI22
aI47
atp2041
Rp2042
sI10
g1113
((lp2043
I64
aI80
aI35
aI68
aI81
aI48
aI17
aI87
aI89
atp2044
Rp2045
sI11
g1113
((lp2046
I96
aI69
aI70
aI39
aI75
aI76
aI50
aI52
aI85
aI60
atp2047
Rp2048
sI12
g1113
((lp2049
I83
aI5
aI38
aI77
aI78
aI79
aI82
aI51
aI86
atp2050
Rp2051
sI13
g1113
((lp2052
I33
aI65
aI7
aI41
aI20
aI24
aI31
atp2053
Rp2054
sI14
g1113
((lp2055
I144
aI129
aI101
aI118
aI142
atp2056
Rp2057
sI15
g1113
((lp2058
I128
aI130
aI104
aI137
aI113
aI146
atp2059
Rp2060
sI16
g1113
((lp2061
I149
aI122
aI147
aI109
aI103
atp2062
Rp2063
sI17
g1113
((lp2064
I162
aI195
aI167
aI136
aI174
aI114
aI119
aI153
aI125
atp2065
Rp2066
sI18
g1113
((lp2067
I161
aI194
aI197
aI198
aI199
aI200
aI110
aI155
aI157
aI190
aI127
atp2068
Rp2069
sI19
g1113
((lp2070
I164
aI135
aI168
aI180
aI117
aI148
aI187
aI189
aI181
atp2071
Rp2072
sI20
g1113
((lp2073
I105
aI138
aI183
aI177
aI178
aI179
aI182
aI151
aI186
atp2074
Rp2075
sa.