(lp0
(dp1
I1
I0
sI2
I1
sI3
I2
sI4
I3
sI5
I4
sI6
I5
sI7
I6
sI8
I1
sI9
I2
sI10
I7
sI11
I8
sI12
I8
sI13
I3
sI14
I9
sI15
I5
sI16
I8
sI17
I10
sI18
I0
sI19
I9
sI20
I6
sI21
I8
sI22
I2
sI23
I1
sI24
I6
sI25
I9
sI26
I5
sI27
I7
sI28
I3
sI29
I0
sI30
I3
sI31
I11
sI32
I1
sI33
I6
sI34
I5
sI35
I10
sI36
I9
sI37
I3
sI38
I4
sI39
I12
sI40
I1
sI41
I6
sI42
I0
sI43
I13
sI44
I0
sI45
I1
sI46
I3
sI47
I2
sI48
I10
sI49
I2
sI50
I12
sI51
I4
sI52
I12
sI53
I9
sI54
I8
sI55
I7
sI56
I13
sI57
I7
sI58
I5
sI59
I13
sI60
I12
sI61
I7
sI62
I9
sI63
I13
sI64
I10
sI65
I6
sI66
I5
sI67
I9
sI68
I10
sI69
I12
sI70
I12
sI71
I8
sI72
I13
sI73
I8
sI74
I9
sI75
I12
sI76
I12
sI77
I4
sI78
I4
sI79
I4
sI80
I10
sI81
I10
sI82
I4
sI83
I4
sI84
I8
sI85
I12
sI86
I4
sI87
I10
sI88
I13
sI89
I10
sI90
I7
sI91
I13
sI92
I13
sI93
I13
sI94
I7
sI95
I9
sI96
I12
sI97
I7
sI98
I7
sI99
I7
sI100
I7
sI101
I14
sI102
I15
sI103
I16
sI104
I17
sI105
I18
sI106
I19
sI107
I12
sI108
I15
sI109
I16
sI110
I20
sI111
I21
sI112
I21
sI113
I17
sI114
I22
sI115
I19
sI116
I21
sI117
I23
sI118
I14
sI119
I22
sI120
I12
sI121
I21
sI122
I16
sI123
I15
sI124
I12
sI125
I22
sI126
I19
sI127
I20
sI128
I17
sI129
I14
sI130
I17
sI131
I12
sI132
I15
sI133
I12
sI134
I19
sI135
I23
sI136
I22
sI137
I17
sI138
I18
sI139
I11
sI140
I15
sI141
I12
sI142
I14
sI143
I24
sI144
I14
sI145
I15
sI146
I17
sI147
I16
sI148
I23
sI149
I16
sI150
I11
sI151
I18
sI152
I11
sI153
I22
sI154
I21
sI155
I20
sI156
I24
sI157
I20
sI158
I19
sI159
I24
sI160
I11
sI161
I20
sI162
I22
sI163
I24
sI164
I23
sI165
I12
sI166
I19
sI167
I22
sI168
I23
sI169
I11
sI170
I11
sI171
I21
sI172
I24
sI173
I21
sI174
I22
sI175
I11
sI176
I11
sI177
I18
sI178
I18
sI179
I18
sI180
I23
sI181
I23
sI182
I18
sI183
I18
sI184
I21
sI185
I11
sI186
I18
sI187
I23
sI188
I24
sI189
I23
sI190
I20
sI191
I24
sI192
I24
sI193
I24
sI194
I20
sI195
I22
sI196
I11
sI197
I20
sI198
I20
sI199
I20
sI200
I20
sa(dp2
I0
I0
sI1
I1
sI2
I2
sI3
I3
sI4
I4
sI5
I4
sI6
I5
sI7
I6
sI8
I7
sI9
I8
sI10
I9
sI11
I5
sI12
I5
sI13
I10
sI14
I11
sI15
I12
sI16
I13
sI17
I14
sI18
I15
sI19
I15
sI20
I16
sI21
I17
sI22
I18
sI23
I19
sI24
I20
sa.