(lp0
(dp1
I1
I0
sI2
I1
sI3
I2
sI4
I3
sI5
I4
sI6
I5
sI7
I6
sI8
I1
sI9
I7
sI10
I8
sI11
I9
sI12
I9
sI13
I3
sI14
I10
sI15
I11
sI16
I9
sI17
I12
sI18
I0
sI19
I10
sI20
I6
sI21
I9
sI22
I7
sI23
I1
sI24
I6
sI25
I10
sI26
I11
sI27
I8
sI28
I3
sI29
I0
sI30
I3
sI31
I6
sI32
I1
sI33
I6
sI34
I11
sI35
I12
sI36
I10
sI37
I3
sI38
I4
sI39
I13
sI40
I1
sI41
I6
sI42
I0
sI43
I14
sI44
I0
sI45
I1
sI46
I3
sI47
I7
sI48
I12
sI49
I7
sI50
I13
sI51
I4
sI52
I13
sI53
I10
sI54
I9
sI55
I8
sI56
I14
sI57
I8
sI58
I11
sI59
I14
sI60
I13
sI61
I8
sI62
I10
sI63
I14
sI64
I12
sI65
I6
sI66
I11
sI67
I10
sI68
I12
sI69
I13
sI70
I13
sI71
I9
sI72
I14
sI73
I9
sI74
I10
sI75
I13
sI76
I13
sI77
I15
sI78
I4
sI79
I4
sI80
I12
sI81
I12
sI82
I4
sI83
I4
sI84
I9
sI85
I13
sI86
I4
sI87
I12
sI88
I14
sI89
I12
sI90
I8
sI91
I14
sI92
I14
sI93
I14
sI94
I8
sI95
I10
sI96
I13
sI97
I8
sI98
I8
sI99
I8
sI100
I8
sI101
I16
sI102
I12
sI103
I17
sI104
I8
sI105
I7
sI106
I18
sI107
I19
sI108
I14
sI109
I17
sI110
I15
sI111
I20
sI112
I20
sI113
I8
sI114
I21
sI115
I18
sI116
I20
sI117
I13
sI118
I16
sI119
I21
sI120
I22
sI121
I20
sI122
I17
sI123
I12
sI124
I22
sI125
I21
sI126
I18
sI127
I15
sI128
I8
sI129
I16
sI130
I8
sI131
I19
sI132
I12
sI133
I22
sI134
I18
sI135
I13
sI136
I21
sI137
I8
sI138
I7
sI139
I2
sI140
I11
sI141
I19
sI142
I16
sI143
I5
sI144
I16
sI145
I12
sI146
I9
sI147
I17
sI148
I13
sI149
I17
sI150
I2
sI151
I7
sI152
I2
sI153
I21
sI154
I20
sI155
I15
sI156
I5
sI157
I15
sI158
I18
sI159
I5
sI160
I4
sI161
I15
sI162
I21
sI163
I5
sI164
I13
sI165
I19
sI166
I18
sI167
I21
sI168
I13
sI169
I2
sI170
I2
sI171
I20
sI172
I5
sI173
I20
sI174
I21
sI175
I2
sI176
I2
sI177
I7
sI178
I7
sI179
I7
sI180
I13
sI181
I13
sI182
I7
sI183
I7
sI184
I20
sI185
I2
sI186
I7
sI187
I13
sI188
I5
sI189
I13
sI190
I15
sI191
I5
sI192
I5
sI193
I5
sI194
I15
sI195
I21
sI196
I2
sI197
I15
sI198
I15
sI199
I15
sI200
I15
sa(dp2
I0
I0
sI1
I1
sI2
I2
sI3
I3
sI4
I2
sI5
I4
sI6
I5
sI7
I6
sI8
I7
sI9
I8
sI10
I9
sI11
I4
sI12
I4
sI13
I10
sI14
I11
sI15
I11
sI16
I12
sI17
I13
sI18
I13
sI19
I14
sI20
I15
sI21
I16
sI22
I14
sa.