(lp0
ccopy_reg
_reconstructor
p1
(cnetworkx.classes.graph
Graph
p2
c__builtin__
object
p3
Ntp4
Rp5
(dp6
S'node'
p7
(dp8
I1
(dp9
sI2
(dp10
sI3
(dp11
sI4
(dp12
sI5
(dp13
sI6
(dp14
sI7
(dp15
sI8
(dp16
sI9
(dp17
sI10
(dp18
sI11
(dp19
sI12
(dp20
sI13
(dp21
sI14
(dp22
sI15
(dp23
sI16
(dp24
sI17
(dp25
sI18
(dp26
sI19
(dp27
sI20
(dp28
sI21
(dp29
sI22
(dp30
sI23
(dp31
sI24
(dp32
sI25
(dp33
sI26
(dp34
sI27
(dp35
sI28
(dp36
sI29
(dp37
sI30
(dp38
sI31
(dp39
sI32
(dp40
sI33
(dp41
sI34
(dp42
sI35
(dp43
sI36
(dp44
sI37
(dp45
sI38
(dp46
sI39
(dp47
sI40
(dp48
sI41
(dp49
sI42
(dp50
sI43
(dp51
sI44
(dp52
sI45
(dp53
sI46
(dp54
sI47
(dp55
sI48
(dp56
sI49
(dp57
sI50
(dp58
sI51
(dp59
sI52
(dp60
sI53
(dp61
sI54
(dp62
sI55
(dp63
sI56
(dp64
sI57
(dp65
sI58
(dp66
sI59
(dp67
sI60
(dp68
sI61
(dp69
sI62
(dp70
sI63
(dp71
sI64
(dp72
sI65
(dp73
sI66
(dp74
sI67
(dp75
sI68
(dp76
sI69
(dp77
sI70
(dp78
sI71
(dp79
sI72
(dp80
sI73
(dp81
sI74
(dp82
sI75
(dp83
sI76
(dp84
sI77
(dp85
sI78
(dp86
sI79
(dp87
sI80
(dp88
sI81
(dp89
sI82
(dp90
sI83
(dp91
sI84
(dp92
sI85
(dp93
sI86
(dp94
sI87
(dp95
sI88
(dp96
sI89
(dp97
sI90
(dp98
sI91
(dp99
sI92
(dp100
sI93
(dp101
sI94
(dp102
sI95
(dp103
sI96
(dp104
sI97
(dp105
sI98
(dp106
sI99
(dp107
sI100
(dp108
sI101
(dp109
sI102
(dp110
sI103
(dp111
sI104
(dp112
sI105
(dp113
sI106
(dp114
sI107
(dp115
sI108
(dp116
sI109
(dp117
sI110
(dp118
sI111
(dp119
sI112
(dp120
sI113
(dp121
sI114
(dp122
sI115
(dp123
sI116
(dp124
sI117
(dp125
sI118
(dp126
sI119
(dp127
sI120
(dp128
sI121
(dp129
sI122
(dp130
sI123
(dp131
sI124
(dp132
sI125
(dp133
sI126
(dp134
sI127
(dp135
sI128
(dp136
sI129
(dp137
sI130
(dp138
sI131
(dp139
sI132
(dp140
sI133
(dp141
sI134
(dp142
sI135
(dp143
sI136
(dp144
sI137
(dp145
sI138
(dp146
sI139
(dp147
sI140
(dp148
sI141
(dp149
sI142
(dp150
sI143
(dp151
sI144
(dp152
sI145
(dp153
sI146
(dp154
sI147
(dp155
sI148
(dp156
sI149
(dp157
sI150
(dp158
sI151
(dp159
sI152
(dp160
sI153
(dp161
sI154
(dp162
sI155
(dp163
sI156
(dp164
sI157
(dp165
sI158
(dp166
sI159
(dp167
sI160
(dp168
sI161
(dp169
sI162
(dp170
sI163
(dp171
sI164
(dp172
sI165
(dp173
sI166
(dp174
sI167
(dp175
sI168
(dp176
sI169
(dp177
sI170
(dp178
sI171
(dp179
sI172
(dp180
sI173
(dp181
sI174
(dp182
sI175
(dp183
sI176
(dp184
sI177
(dp185
sI178
(dp186
sI179
(dp187
sI180
(dp188
sI181
(dp189
sI182
(dp190
sI183
(dp191
sI184
(dp192
sI185
(dp193
sI186
(dp194
sI187
(dp195
sI188
(dp196
sI189
(dp197
sI190
(dp198
sI191
(dp199
sI192
(dp200
sI193
(dp201
sI194
(dp202
sI195
(dp203
sI196
(dp204
sI197
(dp205
sI198
(dp206
sI199
(dp207
sI200
(dp208
ssS'node_dict_factory'
p209
c__builtin__
dict
p210
sS'edge_attr_dict_factory'
p211
g210
sS'edge'
p212
(dp213
I1
(dp214
I18
(dp215
sI109
(dp216
sI44
(dp217
sI42
(dp218
sI29
(dp219
ssI2
(dp220
I32
(dp221
sI8
(dp222
sI107
(dp223
sI45
(dp224
sI113
(dp225
sI23
(dp226
ssI3
(dp227
I49
(dp228
sI9
(dp229
sI138
(dp230
sI47
(dp231
sI177
(dp232
sI22
(dp233
ssI4
(dp234
I129
(dp235
sI28
(dp236
sI13
(dp237
sI46
(dp238
sI37
(dp239
ssI5
(dp240
I82
(dp241
sI78
(dp242
sI86
(dp243
sI79
(dp244
ssI6
(dp245
I34
(dp246
sI102
(dp247
sI103
(dp248
sI66
(dp249
sI26
(dp250
sI58
(dp251
ssI7
(dp252
I24
(dp253
sI41
(dp254
sI136
(dp255
sI31
(dp256
sI65
(dp257
ssI8
(dp258
I40
(dp259
sI81
(dp260
sI2
g222
sI45
(dp261
sI141
(dp262
ssI9
(dp263
I3
g229
sI22
(dp264
sI47
(dp265
sI49
(dp266
sI182
(dp267
sI183
(dp268
ssI10
(dp269
I97
(dp270
sI98
(dp271
sI100
(dp272
sI166
(dp273
sI94
(dp274
ssI11
(dp275
I16
(dp276
sI73
(dp277
sI84
(dp278
sI71
(dp279
ssI12
(dp280
I73
(dp281
sI84
(dp282
sI54
(dp283
sI71
(dp284
ssI13
(dp285
I4
g237
sI37
(dp286
sI103
(dp287
sI46
(dp288
sI144
(dp289
sI30
(dp290
ssI14
(dp291
I67
(dp292
sI197
(dp293
sI74
(dp294
sI109
(dp295
sI53
(dp296
sI95
(dp297
ssI15
(dp298
I145
(dp299
sI26
(dp300
sI34
(dp301
sI66
(dp302
sI58
(dp303
ssI16
(dp304
I11
g276
sI84
(dp305
sI54
(dp306
sI71
(dp307
ssI17
(dp308
I80
(dp309
sI89
(dp310
sI130
(dp311
sI47
(dp312
sI87
(dp313
ssI18
(dp314
I1
g215
sI42
(dp315
sI44
(dp316
sI111
(dp317
sI149
(dp318
sI29
(dp319
ssI19
(dp320
I194
(dp321
sI67
(dp322
sI110
(dp323
sI25
(dp324
sI62
(dp325
sI95
(dp326
ssI20
(dp327
I33
(dp328
sI65
(dp329
sI41
(dp330
sI114
(dp331
sI24
(dp332
sI125
(dp333
ssI21
(dp334
I73
(dp335
sI84
(dp336
sI54
(dp337
sI71
(dp338
ssI22
(dp339
I3
g233
sI9
g264
sI47
(dp340
sI49
(dp341
sI178
(dp342
sI179
(dp343
ssI23
(dp344
I32
(dp345
sI40
(dp346
sI2
g226
sI45
(dp347
sI133
(dp348
ssI24
(dp349
I33
(dp350
sI195
(dp351
sI65
(dp352
sI7
g253
sI174
(dp353
sI20
g332
ssI25
(dp354
I67
(dp355
sI19
g324
sI74
(dp356
sI190
(dp357
sI95
(dp358
ssI26
(dp359
I58
(dp360
sI123
(dp361
sI66
(dp362
sI6
g250
sI15
g300
ssI27
(dp363
I90
(dp364
sI99
(dp365
sI100
(dp366
sI98
(dp367
sI134
(dp368
ssI28
(dp369
I30
(dp370
sI118
(dp371
sI4
g236
sI37
(dp372
sI46
(dp373
ssI29
(dp374
I1
g219
sI18
g319
sI44
(dp375
sI42
(dp376
sI103
(dp377
ssI30
(dp378
I129
(dp379
sI28
g370
sI13
g290
sI46
(dp380
sI37
(dp381
ssI31
(dp382
I41
(dp383
sI119
(dp384
sI166
(dp385
sI65
(dp386
sI7
g256
ssI32
(dp387
I40
(dp388
sI165
(dp389
sI2
g221
sI45
(dp390
sI23
g345
ssI33
(dp391
I24
g350
sI41
(dp392
sI162
(dp393
sI20
g328
sI65
(dp394
ssI34
(dp395
I128
(dp396
sI66
(dp397
sI132
(dp398
sI6
g246
sI15
g301
sI83
(dp399
sI58
(dp400
ssI35
(dp401
I64
(dp402
sI68
(dp403
sI137
(dp404
sI81
(dp405
sI87
(dp406
sI89
(dp407
ssI36
(dp408
I67
(dp409
sI74
(dp410
sI53
(dp411
sI157
(dp412
sI62
(dp413
sI95
(dp414
ssI37
(dp415
I4
g239
sI101
(dp416
sI13
g286
sI46
(dp417
sI146
(dp418
sI28
g372
sI30
g381
ssI38
(dp419
I82
(dp420
sI83
(dp421
sI77
(dp422
sI86
(dp423
sI79
(dp424
ssI39
(dp425
I96
(dp426
sI193
(dp427
sI69
(dp428
sI76
(dp429
sI52
(dp430
sI85
(dp431
ssI40
(dp432
I32
g388
sI8
g259
sI45
(dp433
sI23
g346
sI120
(dp434
sI93
(dp435
ssI41
(dp436
I33
g392
sI65
(dp437
sI7
g254
sI20
g330
sI149
(dp438
sI186
(dp439
sI167
(dp440
sI31
g383
ssI42
(dp441
I1
g218
sI100
(dp442
sI44
(dp443
sI18
g315
sI122
(dp444
sI29
g376
ssI43
(dp445
I184
(dp446
sI88
(dp447
sI151
(dp448
sI56
(dp449
sI91
(dp450
sI92
(dp451
sI93
(dp452
ssI44
(dp453
I1
g217
sI70
(dp454
sI42
g443
sI18
g316
sI147
(dp455
sI29
g375
ssI45
(dp456
I32
g390
sI2
g224
sI131
(dp457
sI8
g261
sI40
g433
sI23
g347
sI124
(dp458
ssI46
(dp459
I4
g238
sI37
g417
sI13
g288
sI142
(dp460
sI28
g373
sI30
g380
ssI47
(dp461
I3
g231
sI17
g312
sI9
g265
sI151
(dp462
sI112
(dp463
sI49
(dp464
sI22
g340
sI105
(dp465
sI122
(dp466
ssI48
(dp467
I68
(dp468
sI104
(dp469
sI80
(dp470
sI81
(dp471
sI87
(dp472
sI89
(dp473
ssI49
(dp474
I3
g228
sI9
g266
sI47
g464
sI22
g341
sI58
(dp475
sI186
(dp476
ssI50
(dp477
I96
(dp478
sI70
(dp479
sI75
(dp480
sI76
(dp481
sI85
(dp482
sI191
(dp483
ssI51
(dp484
I73
(dp485
sI82
(dp486
sI83
(dp487
sI78
(dp488
sI86
(dp489
ssI52
(dp490
I96
(dp491
sI69
(dp492
sI70
(dp493
sI39
g430
sI75
(dp494
sI143
(dp495
sI85
(dp496
ssI53
(dp497
I36
g411
sI198
(dp498
sI74
(dp499
sI14
g296
sI63
(dp500
sI62
(dp501
sI95
(dp502
ssI54
(dp503
I71
(dp504
sI73
(dp505
sI12
g283
sI16
g306
sI84
(dp506
sI21
g337
ssI55
(dp507
I97
(dp508
sI98
(dp509
sI99
(dp510
sI100
(dp511
sI158
(dp512
sI90
(dp513
sI94
(dp514
ssI56
(dp515
I72
(dp516
sI43
g449
sI88
(dp517
sI154
(dp518
sI91
(dp519
sI92
(dp520
sI93
(dp521
ssI57
(dp522
I97
(dp523
sI98
(dp524
sI99
(dp525
sI100
(dp526
sI115
(dp527
sI90
(dp528
sI94
(dp529
ssI58
(dp530
I66
(dp531
sI6
g251
sI140
(dp532
sI34
g400
sI15
g303
sI49
g475
sI26
g360
ssI59
(dp533
I72
(dp534
sI112
(dp535
sI88
(dp536
sI91
(dp537
sI92
(dp538
sI93
(dp539
sI63
(dp540
ssI60
(dp541
I96
(dp542
sI69
(dp543
sI70
(dp544
sI75
(dp545
sI76
(dp546
sI85
(dp547
sI188
(dp548
ssI61
(dp549
I97
(dp550
sI98
(dp551
sI99
(dp552
sI100
(dp553
sI134
(dp554
sI90
(dp555
sI94
(dp556
ssI62
(dp557
I67
(dp558
sI36
g413
sI199
(dp559
sI74
(dp560
sI19
g325
sI53
g501
sI121
(dp561
sI95
(dp562
ssI63
(dp563
I59
g540
sI171
(dp564
sI53
g500
sI88
(dp565
sI91
(dp566
sI92
(dp567
sI93
(dp568
ssI64
(dp569
I35
g402
sI68
(dp570
sI80
(dp571
sI81
(dp572
sI146
(dp573
sI87
(dp574
sI89
(dp575
ssI65
(dp576
I33
g394
sI7
g257
sI41
g437
sI20
g329
sI24
g352
sI153
(dp577
sI31
g386
ssI66
(dp578
I34
g397
sI6
g249
sI108
(dp579
sI77
(dp580
sI15
g302
sI26
g362
sI58
g531
ssI67
(dp581
I36
g409
sI74
(dp582
sI14
g292
sI19
g322
sI25
g355
sI127
(dp583
sI62
g558
sI95
(dp584
ssI68
(dp585
I64
g570
sI80
(dp586
sI35
g403
sI113
(dp587
sI48
g468
sI81
(dp588
sI87
(dp589
sI89
(dp590
ssI69
(dp591
I96
(dp592
sI194
(dp593
sI70
(dp594
sI39
g428
sI75
(dp595
sI52
g492
sI85
(dp596
sI60
g543
sI159
(dp597
ssI70
(dp598
I96
(dp599
sI69
g594
sI76
(dp600
sI44
g454
sI50
g479
sI52
g493
sI156
(dp601
sI60
g544
ssI71
(dp602
I73
(dp603
sI11
g279
sI12
g284
sI16
g307
sI84
(dp604
sI21
g338
sI54
g504
ssI72
(dp605
I59
g534
sI113
(dp606
sI111
(dp607
sI88
(dp608
sI87
(dp609
sI56
g516
sI91
(dp610
sI92
(dp611
sI93
(dp612
ssI73
(dp613
I71
g603
sI11
g277
sI12
g281
sI51
g485
sI84
(dp614
sI21
g335
sI54
g505
ssI74
(dp615
I161
(dp616
sI67
g582
sI36
g410
sI14
g294
sI53
g499
sI25
g356
sI62
g560
sI95
(dp617
ssI75
(dp618
I96
(dp619
sI69
g595
sI156
(dp620
sI76
(dp621
sI50
g480
sI52
g494
sI85
(dp622
sI60
g545
ssI76
(dp623
I96
(dp624
sI192
(dp625
sI70
g600
sI39
g429
sI75
g621
sI50
g481
sI85
(dp626
sI60
g546
ssI77
(dp627
I66
g580
sI38
g422
sI78
(dp628
sI79
(dp629
sI82
(dp630
sI83
(dp631
sI86
(dp632
ssI78
(dp633
I51
g488
sI5
g242
sI77
g628
sI79
(dp634
sI82
(dp635
sI83
(dp636
sI86
(dp637
ssI79
(dp638
I5
g244
sI38
g424
sI77
g629
sI78
g634
sI82
(dp639
sI83
(dp640
sI86
(dp641
ssI80
(dp642
I64
g571
sI68
g586
sI81
(dp643
sI137
(dp644
sI48
g470
sI17
g309
sI87
(dp645
sI88
(dp646
sI89
(dp647
ssI81
(dp648
I64
g572
sI80
g643
sI35
g405
sI68
g588
sI8
g260
sI48
g471
sI113
(dp649
sI87
(dp650
sI89
(dp651
ssI82
(dp652
I83
(dp653
sI5
g241
sI38
g420
sI77
g630
sI78
g635
sI79
g639
sI51
g486
sI86
(dp654
ssI83
(dp655
I34
g399
sI38
g421
sI77
g631
sI78
g636
sI79
g640
sI82
g653
sI51
g487
sI86
(dp656
ssI84
(dp657
I71
g604
sI73
g614
sI11
g278
sI12
g282
sI16
g305
sI21
g336
sI54
g506
sI92
(dp658
ssI85
(dp659
I96
(dp660
sI163
(dp661
sI69
g596
sI39
g431
sI75
g622
sI76
g626
sI50
g482
sI52
g496
sI60
g547
ssI86
(dp662
I83
g656
sI5
g243
sI38
g423
sI77
g632
sI78
g637
sI79
g641
sI82
g654
sI51
g489
sI89
(dp663
ssI87
(dp664
I64
g574
sI80
g645
sI35
g406
sI68
g589
sI81
g650
sI72
g609
sI128
(dp665
sI48
g472
sI17
g313
sI89
(dp666
ssI88
(dp667
I91
(dp668
sI72
g608
sI43
g447
sI80
g646
sI56
g517
sI121
(dp669
sI59
g536
sI92
(dp670
sI93
(dp671
sI63
g565
ssI89
(dp672
I64
g575
sI80
g647
sI35
g407
sI68
g590
sI81
g651
sI104
(dp673
sI48
g473
sI17
g310
sI86
g663
sI87
g666
ssI90
(dp674
I97
(dp675
sI98
(dp676
sI99
(dp677
sI100
(dp678
sI115
(dp679
sI55
g513
sI57
g528
sI27
g364
sI61
g555
sI94
(dp680
ssI91
(dp681
I97
(dp682
sI113
(dp683
sI72
g610
sI43
g450
sI173
(dp684
sI88
g668
sI56
g519
sI59
g537
sI92
(dp685
sI93
(dp686
sI63
g566
ssI92
(dp687
I91
g685
sI72
g611
sI43
g451
sI88
g670
sI84
g658
sI56
g520
sI154
(dp688
sI59
g538
sI93
(dp689
sI63
g567
ssI93
(dp690
I91
g686
sI40
g435
sI43
g452
sI72
g612
sI116
(dp691
sI56
g521
sI88
g671
sI59
g539
sI92
g689
sI63
g568
ssI94
(dp692
I97
(dp693
sI98
(dp694
sI99
(dp695
sI100
(dp696
sI10
g274
sI55
g514
sI57
g529
sI90
g680
sI61
g556
sI126
(dp697
ssI95
(dp698
I67
g584
sI36
g414
sI200
(dp699
sI74
g617
sI14
g297
sI99
(dp700
sI19
g326
sI53
g502
sI25
g358
sI155
(dp701
sI62
g562
ssI96
(dp702
I69
g592
sI70
g599
sI39
g426
sI172
(dp703
sI75
g619
sI76
g624
sI50
g478
sI52
g491
sI85
g660
sI60
g542
ssI97
(dp704
I98
(dp705
sI99
(dp706
sI100
(dp707
sI10
g270
sI106
(dp708
sI55
g508
sI57
g523
sI90
g675
sI91
g682
sI61
g550
sI94
g693
ssI98
(dp709
I97
g705
sI99
(dp710
sI100
(dp711
sI10
g271
sI126
(dp712
sI55
g509
sI57
g524
sI90
g676
sI27
g367
sI61
g551
sI94
g694
ssI99
(dp713
I97
g706
sI98
g710
sI100
(dp714
sI158
(dp715
sI55
g510
sI57
g525
sI90
g677
sI27
g365
sI61
g552
sI94
g695
sI95
g700
ssI100
(dp716
I97
g707
sI98
g711
sI99
g714
sI166
(dp717
sI10
g272
sI42
g442
sI55
g511
sI57
g526
sI90
g678
sI27
g366
sI61
g553
sI94
g696
ssI101
(dp718
I144
(dp719
sI129
(dp720
sI118
(dp721
sI142
(dp722
sI37
g416
ssI102
(dp723
I108
(dp724
sI123
(dp725
sI132
(dp726
sI6
g247
sI145
(dp727
ssI103
(dp728
I6
g248
sI13
g287
sI109
(dp729
sI147
(dp730
sI149
(dp731
sI122
(dp732
sI29
g377
ssI104
(dp733
I128
(dp734
sI137
(dp735
sI48
g469
sI113
(dp736
sI146
(dp737
sI89
g673
ssI105
(dp738
I178
(dp739
sI179
(dp740
sI186
(dp741
sI182
(dp742
sI47
g465
ssI106
(dp743
I97
g708
sI126
(dp744
sI134
(dp745
sI166
(dp746
sI158
(dp747
ssI107
(dp748
I2
g223
sI131
(dp749
sI124
(dp750
sI141
(dp751
sI165
(dp752
ssI108
(dp753
I145
(dp754
sI66
g579
sI140
(dp755
sI181
(dp756
sI102
g724
ssI109
(dp757
I1
g216
sI103
g729
sI14
g295
sI147
(dp758
sI149
(dp759
sI122
(dp760
ssI110
(dp761
I200
(dp762
sI194
(dp763
sI19
g323
sI197
(dp764
sI198
(dp765
ssI111
(dp766
I72
g607
sI171
(dp767
sI173
(dp768
sI18
g317
sI116
(dp769
sI184
(dp770
ssI112
(dp771
I171
(dp772
sI173
(dp773
sI47
g463
sI184
(dp774
sI154
(dp775
sI59
g535
ssI113
(dp776
I130
(dp777
sI68
g587
sI81
g649
sI104
g736
sI137
(dp778
sI2
g225
sI72
g606
sI146
(dp779
sI91
g683
ssI114
(dp780
I153
(dp781
sI195
(dp782
sI20
g331
sI174
(dp783
sI167
(dp784
ssI115
(dp785
I166
(dp786
sI134
(dp787
sI158
(dp788
sI57
g527
sI90
g679
sI126
(dp789
ssI116
(dp790
I184
(dp791
sI154
(dp792
sI171
(dp793
sI93
g691
sI111
g769
ssI117
(dp794
I147
(dp795
sI180
(dp796
sI187
(dp797
sI189
(dp798
ssI118
(dp799
I144
(dp800
sI129
(dp801
sI28
g371
sI101
g721
sI142
(dp802
ssI119
(dp803
I31
g384
sI162
(dp804
sI195
(dp805
sI125
(dp806
sI167
(dp807
ssI120
(dp808
I141
(dp809
sI40
g434
sI124
(dp810
sI165
(dp811
sI133
(dp812
ssI121
(dp813
I171
(dp814
sI173
(dp815
sI88
g669
sI184
(dp816
sI154
(dp817
sI62
g561
ssI122
(dp818
I103
g732
sI42
g444
sI109
g760
sI47
g466
sI147
(dp819
sI149
(dp820
ssI123
(dp821
I132
(dp822
sI26
g361
sI140
(dp823
sI102
g725
sI145
(dp824
ssI124
(dp825
I120
g810
sI45
g458
sI107
g750
sI133
(dp826
sI165
(dp827
ssI125
(dp828
I167
(dp829
sI20
g333
sI174
(dp830
sI195
(dp831
sI119
g806
ssI126
(dp832
I98
g712
sI166
(dp833
sI106
g744
sI115
g789
sI158
(dp834
sI94
g697
ssI127
(dp835
I200
(dp836
sI67
g583
sI190
(dp837
sI198
(dp838
sI199
(dp839
ssI128
(dp840
I130
(dp841
sI104
g734
sI137
(dp842
sI34
g396
sI146
(dp843
sI87
g665
ssI129
(dp844
I4
g235
sI101
g720
sI142
(dp845
sI144
(dp846
sI118
g801
sI30
g379
ssI130
(dp847
I128
g841
sI113
g777
sI146
(dp848
sI17
g311
sI137
(dp849
ssI131
(dp850
I45
g457
sI107
g749
sI141
(dp851
sI165
(dp852
ssI132
(dp853
I145
(dp854
sI34
g398
sI123
g822
sI140
(dp855
sI102
g726
ssI133
(dp856
I120
g812
sI23
g348
sI124
g826
sI141
(dp857
sI165
(dp858
ssI134
(dp859
I166
(dp860
sI106
g745
sI115
g787
sI183
(dp861
sI27
g368
sI61
g554
sI158
(dp862
ssI135
(dp863
I168
(dp864
sI187
(dp865
sI164
(dp866
sI181
(dp867
sI189
(dp868
ssI136
(dp869
I162
(dp870
sI195
(dp871
sI7
g255
sI167
(dp872
sI174
(dp873
sI153
(dp874
ssI137
(dp875
I128
g842
sI130
g849
sI35
g404
sI104
g735
sI80
g644
sI113
g778
sI146
(dp876
ssI138
(dp877
I3
g230
sI177
(dp878
sI179
(dp879
sI182
(dp880
sI183
(dp881
sI186
(dp882
ssI139
(dp883
I152
(dp884
sI169
(dp885
sI176
(dp886
sI196
(dp887
sI185
(dp888
ssI140
(dp889
I193
(dp890
sI132
g855
sI108
g755
sI145
(dp891
sI58
g532
sI123
g823
ssI141
(dp892
I131
g851
sI133
g857
sI8
g262
sI107
g751
sI120
g809
sI165
(dp893
ssI142
(dp894
I129
g845
sI101
g722
sI200
(dp895
sI46
g460
sI144
(dp896
sI118
g802
ssI143
(dp897
I192
(dp898
sI193
(dp899
sI188
(dp900
sI52
g495
sI156
(dp901
sI191
(dp902
ssI144
(dp903
I129
g846
sI101
g719
sI170
(dp904
sI13
g289
sI142
g896
sI118
g800
ssI145
(dp905
I132
g854
sI102
g727
sI108
g754
sI140
g891
sI15
g299
sI123
g824
ssI146
(dp906
I128
g843
sI64
g573
sI130
g848
sI37
g418
sI104
g737
sI137
g876
sI113
g779
ssI147
(dp907
I103
g730
sI44
g455
sI109
g758
sI149
(dp908
sI122
g819
sI117
g795
ssI148
(dp909
I168
(dp910
sI187
(dp911
sI180
(dp912
sI181
(dp913
sI189
(dp914
ssI149
(dp915
I103
g731
sI41
g438
sI109
g759
sI18
g318
sI147
g908
sI122
g820
sI158
(dp916
ssI150
(dp917
I176
(dp918
sI185
(dp919
sI170
(dp920
sI196
(dp921
sI175
(dp922
ssI151
(dp923
I43
g448
sI173
(dp924
sI47
g462
sI178
(dp925
sI182
(dp926
sI183
(dp927
sI186
(dp928
ssI152
(dp929
I196
(dp930
sI169
(dp931
sI170
(dp932
sI139
g884
sI175
(dp933
sI185
(dp934
ssI153
(dp935
I65
g577
sI162
(dp936
sI163
(dp937
sI136
g874
sI174
(dp938
sI114
g781
sI195
(dp939
ssI154
(dp940
I171
(dp941
sI173
(dp942
sI112
g775
sI56
g518
sI116
g792
sI184
(dp943
sI121
g817
sI92
g688
ssI155
(dp944
I194
(dp945
sI197
(dp946
sI198
(dp947
sI199
(dp948
sI200
(dp949
sI190
(dp950
sI95
g701
ssI156
(dp951
I192
(dp952
sI193
(dp953
sI70
g601
sI75
g620
sI172
(dp954
sI143
g901
sI188
(dp955
sI191
(dp956
ssI157
(dp957
I194
(dp958
sI36
g412
sI197
(dp959
sI198
(dp960
sI199
(dp961
sI200
(dp962
sI190
(dp963
ssI158
(dp964
I99
g715
sI134
g862
sI166
(dp965
sI106
g747
sI115
g788
sI149
g916
sI55
g512
sI126
g834
ssI159
(dp966
I192
(dp967
sI193
(dp968
sI163
(dp969
sI69
g597
sI172
(dp970
sI188
(dp971
sI191
(dp972
ssI160
(dp973
I196
(dp974
sI169
(dp975
sI170
(dp976
sI175
(dp977
sI176
(dp978
sI185
(dp979
ssI161
(dp980
I194
(dp981
sI197
(dp982
sI198
(dp983
sI199
(dp984
sI200
(dp985
sI74
g616
sI190
(dp986
ssI162
(dp987
I33
g393
sI195
(dp988
sI167
(dp989
sI136
g870
sI174
(dp990
sI119
g804
sI153
g936
ssI163
(dp991
I192
(dp992
sI193
(dp993
sI85
g661
sI153
g937
sI159
g969
sI188
(dp994
sI191
(dp995
ssI164
(dp996
I135
g866
sI168
(dp997
sI180
(dp998
sI181
(dp999
sI187
(dp1000
sI189
(dp1001
ssI165
(dp1002
I32
g389
sI131
g852
sI133
g858
sI107
g752
sI141
g893
sI120
g811
sI124
g827
ssI166
(dp1003
I100
g717
sI134
g860
sI106
g746
sI177
(dp1004
sI115
g786
sI158
g965
sI10
g273
sI126
g833
sI31
g385
ssI167
(dp1005
I162
g989
sI195
(dp1006
sI136
g872
sI41
g440
sI174
(dp1007
sI114
g784
sI119
g807
sI125
g829
ssI168
(dp1008
I164
g997
sI135
g864
sI180
(dp1009
sI181
(dp1010
sI148
g910
sI187
(dp1011
sI189
(dp1012
ssI169
(dp1013
I160
g975
sI196
(dp1014
sI170
(dp1015
sI139
g885
sI175
(dp1016
sI152
g931
sI185
(dp1017
ssI170
(dp1018
I160
g976
sI176
(dp1019
sI196
(dp1020
sI169
g1015
sI144
g904
sI150
g920
sI152
g932
ssI171
(dp1021
I173
(dp1022
sI111
g767
sI112
g772
sI116
g793
sI184
(dp1023
sI121
g814
sI154
g941
sI63
g564
ssI172
(dp1024
I192
(dp1025
sI193
(dp1026
sI188
(dp1027
sI191
(dp1028
sI96
g703
sI187
(dp1029
sI156
g954
sI159
g970
ssI173
(dp1030
I171
g1022
sI111
g768
sI112
g773
sI151
g924
sI184
(dp1031
sI121
g815
sI154
g942
sI91
g684
ssI174
(dp1032
I162
g990
sI195
(dp1033
sI167
g1007
sI136
g873
sI114
g783
sI24
g353
sI153
g938
sI125
g830
ssI175
(dp1034
I160
g977
sI196
(dp1035
sI169
g1016
sI176
(dp1036
sI150
g922
sI152
g933
sI185
(dp1037
ssI176
(dp1038
I160
g978
sI196
(dp1039
sI170
g1019
sI139
g886
sI175
g1036
sI150
g918
sI185
(dp1040
ssI177
(dp1041
I3
g232
sI166
g1004
sI138
g878
sI178
(dp1042
sI179
(dp1043
sI182
(dp1044
sI183
(dp1045
sI186
(dp1046
ssI178
(dp1047
I22
g342
sI105
g739
sI151
g925
sI177
g1042
sI179
(dp1048
sI182
(dp1049
sI183
(dp1050
sI186
(dp1051
ssI179
(dp1052
I22
g343
sI105
g740
sI138
g879
sI177
g1043
sI178
g1048
sI182
(dp1053
sI183
(dp1054
sI186
(dp1055
ssI180
(dp1056
I164
g998
sI168
g1009
sI148
g912
sI117
g796
sI187
(dp1057
sI188
(dp1058
sI189
(dp1059
sI181
(dp1060
ssI181
(dp1061
I164
g999
sI135
g867
sI168
g1010
sI108
g756
sI148
g913
sI180
g1060
sI187
(dp1062
sI189
(dp1063
ssI182
(dp1064
I105
g742
sI138
g880
sI183
(dp1065
sI177
g1044
sI178
g1049
sI179
g1053
sI9
g267
sI151
g926
sI186
(dp1066
ssI183
(dp1067
I134
g861
sI9
g268
sI138
g881
sI177
g1045
sI178
g1050
sI179
g1054
sI182
g1065
sI151
g927
sI186
(dp1068
ssI184
(dp1069
I192
(dp1070
sI43
g446
sI171
g1023
sI173
g1031
sI111
g770
sI112
g774
sI116
g791
sI121
g816
sI154
g943
ssI185
(dp1071
I160
g979
sI196
(dp1072
sI169
g1017
sI139
g888
sI175
g1037
sI176
g1040
sI150
g919
sI152
g934
ssI186
(dp1073
I49
g476
sI105
g741
sI138
g882
sI183
g1068
sI177
g1046
sI178
g1051
sI179
g1055
sI41
g439
sI182
g1066
sI151
g928
sI189
(dp1074
ssI187
(dp1075
I164
g1000
sI135
g865
sI168
g1011
sI172
g1029
sI148
g911
sI117
g797
sI180
g1057
sI189
(dp1076
sI181
g1062
ssI188
(dp1077
I192
(dp1078
sI193
(dp1079
sI163
g994
sI60
g548
sI172
g1027
sI143
g900
sI180
g1058
sI191
(dp1080
sI156
g955
sI159
g971
ssI189
(dp1081
I164
g1001
sI135
g868
sI168
g1012
sI180
g1059
sI117
g798
sI148
g914
sI186
g1074
sI187
g1076
sI181
g1063
ssI190
(dp1082
I161
g986
sI194
(dp1083
sI197
(dp1084
sI198
(dp1085
sI199
(dp1086
sI200
(dp1087
sI25
g357
sI155
g950
sI157
g963
sI127
g837
ssI191
(dp1088
I192
(dp1089
sI193
(dp1090
sI163
g995
sI197
(dp1091
sI156
g956
sI172
g1028
sI143
g902
sI50
g483
sI188
g1080
sI159
g972
ssI192
(dp1092
I193
(dp1093
sI163
g992
sI188
g1078
sI172
g1025
sI143
g898
sI76
g625
sI184
g1070
sI191
g1089
sI156
g952
sI159
g967
ssI193
(dp1094
I192
g1093
sI163
g993
sI39
g427
sI140
g890
sI172
g1026
sI143
g899
sI188
g1079
sI191
g1090
sI156
g953
sI159
g968
ssI194
(dp1095
I161
g981
sI197
(dp1096
sI198
(dp1097
sI199
(dp1098
sI200
(dp1099
sI110
g763
sI19
g321
sI155
g945
sI157
g958
sI190
g1083
sI69
g593
ssI195
(dp1100
I162
g988
sI167
g1006
sI136
g871
sI199
(dp1101
sI174
g1033
sI114
g782
sI119
g805
sI24
g351
sI153
g939
sI125
g831
ssI196
(dp1102
I160
g974
sI169
g1014
sI170
g1020
sI139
g887
sI175
g1035
sI176
g1039
sI150
g921
sI152
g930
sI185
g1072
ssI197
(dp1103
I161
g982
sI194
g1096
sI198
(dp1104
sI199
(dp1105
sI200
(dp1106
sI110
g764
sI14
g293
sI155
g946
sI157
g959
sI190
g1084
sI191
g1091
ssI198
(dp1107
I161
g983
sI194
g1097
sI197
g1104
sI199
(dp1108
sI200
(dp1109
sI110
g765
sI53
g498
sI155
g947
sI157
g960
sI190
g1085
sI127
g838
ssI199
(dp1110
I161
g984
sI194
g1098
sI195
g1101
sI197
g1105
sI198
g1108
sI200
(dp1111
sI62
g559
sI155
g948
sI157
g961
sI190
g1086
sI127
g839
ssI200
(dp1112
I161
g985
sI194
g1099
sI197
g1106
sI198
g1109
sI199
g1111
sI95
g699
sI142
g895
sI110
g762
sI155
g949
sI157
g962
sI190
g1087
sI127
g836
sssS'graph'
p1113
(dp1114
sS'adjlist_dict_factory'
p1115
g210
sS'adj'
p1116
g213
sba(dp1117
I1
c__builtin__
set
p1118
((lp1119
I1
aI2
aI3
aI4
aI5
aI6
aI7
aI8
aI9
aI10
aI11
aI12
aI13
aI14
aI15
aI16
aI17
aI18
aI19
aI20
aI21
aI22
aI23
aI24
aI25
aI26
aI27
aI28
aI29
aI30
aI31
aI32
aI33
aI34
aI35
aI36
aI37
aI38
aI39
aI40
aI41
aI42
aI43
aI44
aI45
aI46
aI47
aI48
aI49
aI50
aI51
aI52
aI53
aI54
aI55
aI56
aI57
aI58
aI59
aI60
aI61
aI62
aI63
aI64
aI65
aI66
aI67
aI68
aI69
aI70
aI71
aI72
aI73
aI74
aI75
aI76
aI77
aI78
aI79
aI80
aI81
aI82
aI83
aI84
aI85
aI86
aI87
aI88
aI89
aI90
aI91
aI92
aI93
aI94
aI95
aI96
aI97
aI98
aI99
aI100
atp1120
Rp1121
sI2
g1118
((lp1122
I101
aI102
aI103
aI104
aI105
aI106
aI107
aI108
aI109
aI110
aI111
aI112
aI113
aI114
aI115
aI116
aI117
aI118
aI119
aI120
aI121
aI122
aI123
aI124
aI125
aI126
aI127
aI128
aI129
aI130
aI131
aI132
aI133
aI134
aI135
aI136
aI137
aI138
aI139
aI140
aI141
aI142
aI143
aI144
aI145
aI146
aI147
aI148
aI149
aI150
aI151
aI152
aI153
aI154
aI155
aI156
aI157
aI158
aI159
aI160
aI161
aI162
aI163
aI164
aI165
aI166
aI167
aI168
aI169
aI170
aI171
aI172
aI173
aI174
aI175
aI176
aI177
aI178
aI179
aI180
aI181
aI182
aI183
aI184
aI185
aI186
aI187
aI188
aI189
aI190
aI191
aI192
aI193
aI194
aI195
aI196
aI197
aI198
aI199
aI200
atp1123
Rp1124
sa(dp1125
I1
g1118
((lp1126
I18
aI42
aI44
aI29
atp1127
Rp1128
sI2
g1118
((lp1129
I8
aI32
aI45
aI23
atp1130
Rp1131
sI3
g1118
((lp1132
I9
aI49
aI22
aI47
atp1133
Rp1134
sI4
g1118
((lp1135
I28
aI13
aI46
aI37
atp1136
Rp1137
sI5
g1118
((lp1138
I82
aI86
aI78
aI79
atp1139
Rp1140
sI6
g1118
((lp1141
I26
aI58
aI66
aI34
atp1142
Rp1143
sI7
g1118
((lp1144
I24
aI41
aI65
aI31
atp1145
Rp1146
sI8
g1118
((lp1147
I40
aI81
aI2
aI45
atp1148
Rp1149
sI9
g1118
((lp1150
I49
aI3
aI22
aI47
atp1151
Rp1152
sI10
g1118
((lp1153
I97
aI98
aI100
aI94
atp1154
Rp1155
sI11
g1118
((lp1156
I16
aI73
aI84
aI71
atp1157
Rp1158
sI12
g1118
((lp1159
I73
aI84
aI54
aI71
atp1160
Rp1161
sI13
g1118
((lp1162
I46
aI4
aI37
aI30
atp1163
Rp1164
sI14
g1118
((lp1165
I74
aI67
aI53
aI95
atp1166
Rp1167
sI15
g1118
((lp1168
I26
aI58
aI66
aI34
atp1169
Rp1170
sI16
g1118
((lp1171
I11
aI84
aI54
aI71
atp1172
Rp1173
sI17
g1118
((lp1174
I80
aI89
aI87
aI47
atp1175
Rp1176
sI18
g1118
((lp1177
I1
aI42
aI44
aI29
atp1178
Rp1179
sI19
g1118
((lp1180
I25
aI67
aI62
aI95
atp1181
Rp1182
sI20
g1118
((lp1183
I24
aI33
aI65
aI41
atp1184
Rp1185
sI21
g1118
((lp1186
I73
aI84
aI54
aI71
atp1187
Rp1188
sI22
g1118
((lp1189
I9
aI3
aI49
aI47
atp1190
Rp1191
sI23
g1118
((lp1192
I32
aI40
aI2
aI45
atp1193
Rp1194
sI24
g1118
((lp1195
I33
aI20
aI65
aI7
atp1196
Rp1197
sI25
g1118
((lp1198
I67
aI19
aI74
aI95
atp1199
Rp1200
sI26
g1118
((lp1201
I58
aI66
aI6
aI15
atp1202
Rp1203
sI27
g1118
((lp1204
I90
aI99
aI100
aI98
atp1205
Rp1206
sI28
g1118
((lp1207
I46
aI4
aI37
aI30
atp1208
Rp1209
sI29
g1118
((lp1210
I1
aI18
aI44
aI42
atp1211
Rp1212
sI30
g1118
((lp1213
I28
aI13
aI46
aI37
atp1214
Rp1215
sI31
g1118
((lp1216
I41
aI65
aI7
atp1217
Rp1218
sI32
g1118
((lp1219
I40
aI2
aI45
aI23
atp1220
Rp1221
sI33
g1118
((lp1222
I24
aI41
aI20
aI65
atp1223
Rp1224
sI34
g1118
((lp1225
I58
aI83
aI66
aI6
aI15
atp1226
Rp1227
sI35
g1118
((lp1228
I64
aI81
aI68
aI89
aI87
atp1229
Rp1230
sI36
g1118
((lp1231
I74
aI67
aI53
aI62
aI95
atp1232
Rp1233
sI37
g1118
((lp1234
I28
aI46
aI4
aI13
aI30
atp1235
Rp1236
sI38
g1118
((lp1237
I82
aI83
aI77
aI86
aI79
atp1238
Rp1239
sI39
g1118
((lp1240
I96
aI76
aI52
aI69
aI85
atp1241
Rp1242
sI40
g1118
((lp1243
I8
aI32
aI45
aI93
aI23
atp1244
Rp1245
sI41
g1118
((lp1246
I33
aI31
aI20
aI65
aI7
atp1247
Rp1248
sI42
g1118
((lp1249
I1
aI18
aI44
aI29
aI100
atp1250
Rp1251
sI43
g1118
((lp1252
I56
aI88
aI91
aI92
aI93
atp1253
Rp1254
sI44
g1118
((lp1255
I1
aI18
aI42
aI29
aI70
atp1256
Rp1257
sI45
g1118
((lp1258
I8
aI32
aI2
aI40
aI23
atp1259
Rp1260
sI46
g1118
((lp1261
I28
aI4
aI13
aI30
aI37
atp1262
Rp1263
sI47
g1118
((lp1264
I9
aI3
aI49
aI22
aI17
atp1265
Rp1266
sI48
g1118
((lp1267
I80
aI81
aI68
aI89
aI87
atp1268
Rp1269
sI49
g1118
((lp1270
I9
aI58
aI3
aI22
aI47
atp1271
Rp1272
sI50
g1118
((lp1273
I96
aI75
aI76
aI85
aI70
atp1274
Rp1275
sI51
g1118
((lp1276
I73
aI82
aI83
aI86
aI78
atp1277
Rp1278
sI52
g1118
((lp1279
I96
aI69
aI70
aI39
aI75
aI85
atp1280
Rp1281
sI53
g1118
((lp1282
I36
aI74
aI14
aI63
aI62
aI95
atp1283
Rp1284
sI54
g1118
((lp1285
I71
aI73
aI12
aI16
aI84
aI21
atp1286
Rp1287
sI55
g1118
((lp1288
I97
aI98
aI99
aI100
aI90
aI94
atp1289
Rp1290
sI56
g1118
((lp1291
I72
aI43
aI88
aI91
aI92
aI93
atp1292
Rp1293
sI57
g1118
((lp1294
I97
aI98
aI99
aI100
aI90
aI94
atp1295
Rp1296
sI58
g1118
((lp1297
I66
aI6
aI34
aI15
aI49
aI26
atp1298
Rp1299
sI59
g1118
((lp1300
I72
aI88
aI91
aI92
aI93
aI63
atp1301
Rp1302
sI60
g1118
((lp1303
I96
aI69
aI70
aI75
aI76
aI85
atp1304
Rp1305
sI61
g1118
((lp1306
I97
aI98
aI99
aI100
aI90
aI94
atp1307
Rp1308
sI62
g1118
((lp1309
I67
aI36
aI74
aI19
aI53
aI95
atp1310
Rp1311
sI63
g1118
((lp1312
I59
aI53
aI88
aI91
aI92
aI93
atp1313
Rp1314
sI64
g1118
((lp1315
I35
aI68
aI80
aI81
aI87
aI89
atp1316
Rp1317
sI65
g1118
((lp1318
I33
aI7
aI41
aI20
aI24
aI31
atp1319
Rp1320
sI66
g1118
((lp1321
I34
aI6
aI77
aI15
aI26
aI58
atp1322
Rp1323
sI67
g1118
((lp1324
I36
aI74
aI14
aI19
aI25
aI62
aI95
atp1325
Rp1326
sI68
g1118
((lp1327
I64
aI80
aI35
aI48
aI81
aI87
aI89
atp1328
Rp1329
sI69
g1118
((lp1330
I96
aI70
aI39
aI75
aI52
aI85
aI60
atp1331
Rp1332
sI70
g1118
((lp1333
I96
aI69
aI44
aI76
aI50
aI52
aI60
atp1334
Rp1335
sI71
g1118
((lp1336
I73
aI11
aI12
aI16
aI84
aI21
aI54
atp1337
Rp1338
sI72
g1118
((lp1339
I59
aI88
aI87
aI56
aI91
aI92
aI93
atp1340
Rp1341
sI73
g1118
((lp1342
I71
aI11
aI12
aI51
aI84
aI21
aI54
atp1343
Rp1344
sI74
g1118
((lp1345
I67
aI36
aI14
aI53
aI25
aI62
aI95
atp1346
Rp1347
sI75
g1118
((lp1348
I96
aI69
aI76
aI50
aI52
aI85
aI60
atp1349
Rp1350
sI76
g1118
((lp1351
I96
aI70
aI39
aI75
aI50
aI85
aI60
atp1352
Rp1353
sI77
g1118
((lp1354
I66
aI38
aI78
aI79
aI82
aI83
aI86
atp1355
Rp1356
sI78
g1118
((lp1357
I51
aI5
aI77
aI79
aI82
aI83
aI86
atp1358
Rp1359
sI79
g1118
((lp1360
I5
aI38
aI77
aI78
aI82
aI83
aI86
atp1361
Rp1362
sI80
g1118
((lp1363
I64
aI68
aI81
aI48
aI17
aI87
aI88
aI89
atp1364
Rp1365
sI81
g1118
((lp1366
I64
aI80
aI35
aI68
aI8
aI48
aI87
aI89
atp1367
Rp1368
sI82
g1118
((lp1369
I83
aI5
aI38
aI77
aI78
aI79
aI51
aI86
atp1370
Rp1371
sI83
g1118
((lp1372
I34
aI38
aI77
aI78
aI79
aI82
aI51
aI86
atp1373
Rp1374
sI84
g1118
((lp1375
I71
aI73
aI11
aI12
aI16
aI21
aI54
aI92
atp1376
Rp1377
sI85
g1118
((lp1378
I96
aI69
aI39
aI75
aI76
aI50
aI52
aI60
atp1379
Rp1380
sI86
g1118
((lp1381
I83
aI5
aI38
aI77
aI78
aI79
aI82
aI51
aI89
atp1382
Rp1383
sI87
g1118
((lp1384
I64
aI80
aI35
aI68
aI81
aI72
aI48
aI17
aI89
atp1385
Rp1386
sI88
g1118
((lp1387
I91
aI72
aI43
aI80
aI56
aI59
aI92
aI93
aI63
atp1388
Rp1389
sI89
g1118
((lp1390
I64
aI80
aI35
aI68
aI81
aI48
aI17
aI86
aI87
atp1391
Rp1392
sI90
g1118
((lp1393
I97
aI98
aI99
aI100
aI55
aI57
aI27
aI61
aI94
atp1394
Rp1395
sI91
g1118
((lp1396
I97
aI72
aI43
aI88
aI56
aI59
aI92
aI93
aI63
atp1397
Rp1398
sI92
g1118
((lp1399
I91
aI72
aI43
aI88
aI84
aI56
aI59
aI93
aI63
atp1400
Rp1401
sI93
g1118
((lp1402
I91
aI40
aI43
aI72
aI56
aI88
aI59
aI92
aI63
atp1403
Rp1404
sI94
g1118
((lp1405
I97
aI98
aI99
aI100
aI10
aI55
aI57
aI90
aI61
atp1406
Rp1407
sI95
g1118
((lp1408
I67
aI36
aI74
aI14
aI99
aI19
aI53
aI25
aI62
atp1409
Rp1410
sI96
g1118
((lp1411
I69
aI70
aI39
aI75
aI76
aI50
aI52
aI85
aI60
atp1412
Rp1413
sI97
g1118
((lp1414
I98
aI99
aI100
aI10
aI55
aI57
aI90
aI91
aI61
aI94
atp1415
Rp1416
sI98
g1118
((lp1417
I97
aI99
aI100
aI10
aI55
aI57
aI90
aI27
aI61
aI94
atp1418
Rp1419
sI99
g1118
((lp1420
I97
aI98
aI100
aI55
aI57
aI90
aI27
aI61
aI94
aI95
atp1421
Rp1422
sI100
g1118
((lp1423
I97
aI98
aI99
aI10
aI42
aI55
aI57
aI90
aI27
aI61
aI94
atp1424
Rp1425
sI101
g1118
((lp1426
I144
aI129
aI142
aI118
atp1427
Rp1428
sI102
g1118
((lp1429
I132
aI123
aI108
aI145
atp1430
Rp1431
sI103
g1118
((lp1432
I122
aI147
aI109
aI149
atp1433
Rp1434
sI104
g1118
((lp1435
I128
aI113
aI146
aI137
atp1436
Rp1437
sI105
g1118
((lp1438
I178
aI179
aI186
aI182
atp1439
Rp1440
sI106
g1118
((lp1441
I166
aI134
aI126
aI158
atp1442
Rp1443
sI107
g1118
((lp1444
I131
aI124
aI141
aI165
atp1445
Rp1446
sI108
g1118
((lp1447
I145
aI140
aI181
aI102
atp1448
Rp1449
sI109
g1118
((lp1450
I122
aI147
aI149
aI103
atp1451
Rp1452
sI110
g1118
((lp1453
I200
aI194
aI197
aI198
atp1454
Rp1455
sI111
g1118
((lp1456
I184
aI171
aI116
aI173
atp1457
Rp1458
sI112
g1118
((lp1459
I184
aI154
aI171
aI173
atp1460
Rp1461
sI113
g1118
((lp1462
I104
aI137
aI130
aI146
atp1463
Rp1464
sI114
g1118
((lp1465
I153
aI195
aI174
aI167
atp1466
Rp1467
sI115
g1118
((lp1468
I166
aI134
aI126
aI158
atp1469
Rp1470
sI116
g1118
((lp1471
I184
aI154
aI171
aI111
atp1472
Rp1473
sI117
g1118
((lp1474
I147
aI180
aI187
aI189
atp1475
Rp1476
sI118
g1118
((lp1477
I144
aI129
aI101
aI142
atp1478
Rp1479
sI119
g1118
((lp1480
I162
aI195
aI125
aI167
atp1481
Rp1482
sI120
g1118
((lp1483
I165
aI124
aI133
aI141
atp1484
Rp1485
sI121
g1118
((lp1486
I184
aI154
aI171
aI173
atp1487
Rp1488
sI122
g1118
((lp1489
I149
aI147
aI109
aI103
atp1490
Rp1491
sI123
g1118
((lp1492
I140
aI132
aI102
aI145
atp1493
Rp1494
sI124
g1118
((lp1495
I120
aI107
aI133
aI165
atp1496
Rp1497
sI125
g1118
((lp1498
I167
aI195
aI174
aI119
atp1499
Rp1500
sI126
g1118
((lp1501
I106
aI115
aI166
aI158
atp1502
Rp1503
sI127
g1118
((lp1504
I200
aI198
aI190
aI199
atp1505
Rp1506
sI128
g1118
((lp1507
I104
aI137
aI130
aI146
atp1508
Rp1509
sI129
g1118
((lp1510
I144
aI101
aI118
aI142
atp1511
Rp1512
sI130
g1118
((lp1513
I128
aI113
aI146
aI137
atp1514
Rp1515
sI131
g1118
((lp1516
I107
aI141
aI165
atp1517
Rp1518
sI132
g1118
((lp1519
I145
aI123
aI140
aI102
atp1520
Rp1521
sI133
g1118
((lp1522
I120
aI124
aI141
aI165
atp1523
Rp1524
sI134
g1118
((lp1525
I106
aI115
aI166
aI158
aI183
atp1526
Rp1527
sI135
g1118
((lp1528
I168
aI187
aI164
aI181
aI189
atp1529
Rp1530
sI136
g1118
((lp1531
I153
aI162
aI195
aI174
aI167
atp1532
Rp1533
sI137
g1118
((lp1534
I104
aI113
aI128
aI130
aI146
atp1535
Rp1536
sI138
g1118
((lp1537
I177
aI186
aI179
aI182
aI183
atp1538
Rp1539
sI139
g1118
((lp1540
I152
aI169
aI176
aI196
aI185
atp1541
Rp1542
sI140
g1118
((lp1543
I132
aI193
aI123
aI108
aI145
atp1544
Rp1545
sI141
g1118
((lp1546
I120
aI107
aI131
aI133
aI165
atp1547
Rp1548
sI142
g1118
((lp1549
I144
aI129
aI200
aI101
aI118
atp1550
Rp1551
sI143
g1118
((lp1552
I192
aI188
aI193
aI156
aI191
atp1553
Rp1554
sI144
g1118
((lp1555
I129
aI170
aI101
aI118
aI142
atp1556
Rp1557
sI145
g1118
((lp1558
I132
aI140
aI123
aI108
aI102
atp1559
Rp1560
sI146
g1118
((lp1561
I104
aI113
aI128
aI130
aI137
atp1562
Rp1563
sI147
g1118
((lp1564
I149
aI122
aI117
aI109
aI103
atp1565
Rp1566
sI148
g1118
((lp1567
I168
aI187
aI180
aI181
aI189
atp1568
Rp1569
sI149
g1118
((lp1570
I122
aI147
aI109
aI158
aI103
atp1571
Rp1572
sI150
g1118
((lp1573
I176
aI185
aI170
aI196
aI175
atp1574
Rp1575
sI151
g1118
((lp1576
I178
aI186
aI173
aI182
aI183
atp1577
Rp1578
sI152
g1118
((lp1579
I196
aI169
aI170
aI139
aI175
aI185
atp1580
Rp1581
sI153
g1118
((lp1582
I162
aI163
aI136
aI174
aI114
aI195
atp1583
Rp1584
sI154
g1118
((lp1585
I171
aI173
aI112
aI116
aI184
aI121
atp1586
Rp1587
sI155
g1118
((lp1588
I194
aI197
aI198
aI199
aI200
aI190
atp1589
Rp1590
sI156
g1118
((lp1591
I192
aI193
aI172
aI143
aI188
aI191
atp1592
Rp1593
sI157
g1118
((lp1594
I194
aI197
aI198
aI199
aI200
aI190
atp1595
Rp1596
sI158
g1118
((lp1597
I134
aI166
aI106
aI115
aI149
aI126
atp1598
Rp1599
sI159
g1118
((lp1600
I192
aI193
aI163
aI172
aI188
aI191
atp1601
Rp1602
sI160
g1118
((lp1603
I196
aI169
aI170
aI175
aI176
aI185
atp1604
Rp1605
sI161
g1118
((lp1606
I194
aI197
aI198
aI199
aI200
aI190
atp1607
Rp1608
sI162
g1118
((lp1609
I195
aI167
aI136
aI174
aI119
aI153
atp1610
Rp1611
sI163
g1118
((lp1612
I192
aI193
aI153
aI159
aI188
aI191
atp1613
Rp1614
sI164
g1118
((lp1615
I135
aI168
aI180
aI181
aI187
aI189
atp1616
Rp1617
sI165
g1118
((lp1618
I131
aI133
aI107
aI141
aI120
aI124
atp1619
Rp1620
sI166
g1118
((lp1621
I134
aI106
aI177
aI115
aI158
aI126
atp1622
Rp1623
sI167
g1118
((lp1624
I162
aI195
aI136
aI174
aI114
aI119
aI125
atp1625
Rp1626
sI168
g1118
((lp1627
I164
aI135
aI180
aI181
aI148
aI187
aI189
atp1628
Rp1629
sI169
g1118
((lp1630
I160
aI196
aI170
aI139
aI175
aI152
aI185
atp1631
Rp1632
sI170
g1118
((lp1633
I160
aI176
aI196
aI169
aI144
aI150
aI152
atp1634
Rp1635
sI171
g1118
((lp1636
I173
aI111
aI112
aI116
aI184
aI121
aI154
atp1637
Rp1638
sI172
g1118
((lp1639
I192
aI193
aI156
aI159
aI187
aI188
aI191
atp1640
Rp1641
sI173
g1118
((lp1642
I171
aI111
aI112
aI151
aI184
aI121
aI154
atp1643
Rp1644
sI174
g1118
((lp1645
I162
aI195
aI167
aI136
aI114
aI153
aI125
atp1646
Rp1647
sI175
g1118
((lp1648
I160
aI196
aI169
aI176
aI150
aI152
aI185
atp1649
Rp1650
sI176
g1118
((lp1651
I160
aI196
aI170
aI139
aI175
aI150
aI185
atp1652
Rp1653
sI177
g1118
((lp1654
I166
aI138
aI178
aI179
aI182
aI183
aI186
atp1655
Rp1656
sI178
g1118
((lp1657
I105
aI151
aI177
aI179
aI182
aI183
aI186
atp1658
Rp1659
sI179
g1118
((lp1660
I105
aI138
aI177
aI178
aI182
aI183
aI186
atp1661
Rp1662
sI180
g1118
((lp1663
I164
aI168
aI148
aI117
aI187
aI188
aI189
aI181
atp1664
Rp1665
sI181
g1118
((lp1666
I164
aI135
aI168
aI108
aI148
aI180
aI187
aI189
atp1667
Rp1668
sI182
g1118
((lp1669
I105
aI138
aI183
aI177
aI178
aI179
aI151
aI186
atp1670
Rp1671
sI183
g1118
((lp1672
I134
aI138
aI177
aI178
aI179
aI182
aI151
aI186
atp1673
Rp1674
sI184
g1118
((lp1675
I192
aI171
aI173
aI111
aI112
aI116
aI121
aI154
atp1676
Rp1677
sI185
g1118
((lp1678
I160
aI196
aI169
aI139
aI175
aI176
aI150
aI152
atp1679
Rp1680
sI186
g1118
((lp1681
I105
aI138
aI183
aI177
aI178
aI179
aI182
aI151
aI189
atp1682
Rp1683
sI187
g1118
((lp1684
I164
aI135
aI168
aI172
aI148
aI117
aI180
aI189
aI181
atp1685
Rp1686
sI188
g1118
((lp1687
I192
aI193
aI163
aI172
aI143
aI180
aI191
aI156
aI159
atp1688
Rp1689
sI189
g1118
((lp1690
I164
aI135
aI168
aI180
aI117
aI148
aI186
aI187
aI181
atp1691
Rp1692
sI190
g1118
((lp1693
I161
aI194
aI197
aI198
aI199
aI200
aI155
aI157
aI127
atp1694
Rp1695
sI191
g1118
((lp1696
I192
aI193
aI163
aI197
aI156
aI172
aI143
aI188
aI159
atp1697
Rp1698
sI192
g1118
((lp1699
I193
aI163
aI188
aI172
aI143
aI184
aI191
aI156
aI159
atp1700
Rp1701
sI193
g1118
((lp1702
I192
aI163
aI140
aI172
aI143
aI188
aI191
aI156
aI159
atp1703
Rp1704
sI194
g1118
((lp1705
I161
aI197
aI198
aI199
aI200
aI110
aI155
aI157
aI190
atp1706
Rp1707
sI195
g1118
((lp1708
I162
aI167
aI136
aI199
aI174
aI114
aI119
aI153
aI125
atp1709
Rp1710
sI196
g1118
((lp1711
I160
aI169
aI170
aI139
aI175
aI176
aI150
aI152
aI185
atp1712
Rp1713
sI197
g1118
((lp1714
I161
aI194
aI198
aI199
aI200
aI110
aI155
aI157
aI190
aI191
atp1715
Rp1716
sI198
g1118
((lp1717
I161
aI194
aI197
aI199
aI200
aI110
aI155
aI157
aI190
aI127
atp1718
Rp1719
sI199
g1118
((lp1720
I161
aI194
aI195
aI197
aI198
aI200
aI155
aI157
aI190
aI127
atp1721
Rp1722
sI200
g1118
((lp1723
I161
aI194
aI197
aI198
aI199
aI142
aI110
aI155
aI157
aI190
aI127
atp1724
Rp1725
sa(dp1726
I1
g1118
((lp1727
I109
atp1728
Rp1729
sI2
g1118
((lp1730
I113
aI107
atp1731
Rp1732
sI3
g1118
((lp1733
I177
aI138
atp1734
Rp1735
sI4
g1118
((lp1736
I129
atp1737
Rp1738
sI6
g1118
((lp1739
I102
aI103
atp1740
Rp1741
sI7
g1118
((lp1742
I136
atp1743
Rp1744
sI8
g1118
((lp1745
I141
atp1746
Rp1747
sI9
g1118
((lp1748
I182
aI183
atp1749
Rp1750
sI10
g1118
((lp1751
I166
atp1752
Rp1753
sI13
g1118
((lp1754
I144
aI103
atp1755
Rp1756
sI14
g1118
((lp1757
I197
aI109
atp1758
Rp1759
sI15
g1118
((lp1760
I145
atp1761
Rp1762
sI17
g1118
((lp1763
I130
atp1764
Rp1765
sI18
g1118
((lp1766
I149
aI111
atp1767
Rp1768
sI19
g1118
((lp1769
I194
aI110
atp1770
Rp1771
sI20
g1118
((lp1772
I114
aI125
atp1773
Rp1774
sI22
g1118
((lp1775
I178
aI179
atp1776
Rp1777
sI23
g1118
((lp1778
I133
atp1779
Rp1780
sI24
g1118
((lp1781
I195
aI174
atp1782
Rp1783
sI25
g1118
((lp1784
I190
atp1785
Rp1786
sI26
g1118
((lp1787
I123
atp1788
Rp1789
sI27
g1118
((lp1790
I134
atp1791
Rp1792
sI28
g1118
((lp1793
I118
atp1794
Rp1795
sI29
g1118
((lp1796
I103
atp1797
Rp1798
sI30
g1118
((lp1799
I129
atp1800
Rp1801
sI31
g1118
((lp1802
I166
aI119
atp1803
Rp1804
sI32
g1118
((lp1805
I165
atp1806
Rp1807
sI33
g1118
((lp1808
I162
atp1809
Rp1810
sI34
g1118
((lp1811
I128
aI132
atp1812
Rp1813
sI35
g1118
((lp1814
I137
atp1815
Rp1816
sI36
g1118
((lp1817
I157
atp1818
Rp1819
sI37
g1118
((lp1820
I146
aI101
atp1821
Rp1822
sI39
g1118
((lp1823
I193
atp1824
Rp1825
sI40
g1118
((lp1826
I120
atp1827
Rp1828
sI41
g1118
((lp1829
I186
aI149
aI167
atp1830
Rp1831
sI42
g1118
((lp1832
I122
atp1833
Rp1834
sI43
g1118
((lp1835
I184
aI151
atp1836
Rp1837
sI44
g1118
((lp1838
I147
atp1839
Rp1840
sI45
g1118
((lp1841
I131
aI124
atp1842
Rp1843
sI46
g1118
((lp1844
I142
atp1845
Rp1846
sI47
g1118
((lp1847
I112
aI105
aI122
aI151
atp1848
Rp1849
sI48
g1118
((lp1850
I104
atp1851
Rp1852
sI49
g1118
((lp1853
I186
atp1854
Rp1855
sI50
g1118
((lp1856
I191
atp1857
Rp1858
sI52
g1118
((lp1859
I143
atp1860
Rp1861
sI53
g1118
((lp1862
I198
atp1863
Rp1864
sI55
g1118
((lp1865
I158
atp1866
Rp1867
sI56
g1118
((lp1868
I154
atp1869
Rp1870
sI57
g1118
((lp1871
I115
atp1872
Rp1873
sI58
g1118
((lp1874
I140
atp1875
Rp1876
sI59
g1118
((lp1877
I112
atp1878
Rp1879
sI60
g1118
((lp1880
I188
atp1881
Rp1882
sI61
g1118
((lp1883
I134
atp1884
Rp1885
sI62
g1118
((lp1886
I121
aI199
atp1887
Rp1888
sI63
g1118
((lp1889
I171
atp1890
Rp1891
sI64
g1118
((lp1892
I146
atp1893
Rp1894
sI65
g1118
((lp1895
I153
atp1896
Rp1897
sI66
g1118
((lp1898
I108
atp1899
Rp1900
sI67
g1118
((lp1901
I127
atp1902
Rp1903
sI68
g1118
((lp1904
I113
atp1905
Rp1906
sI69
g1118
((lp1907
I194
aI159
atp1908
Rp1909
sI70
g1118
((lp1910
I156
atp1911
Rp1912
sI72
g1118
((lp1913
I113
aI111
atp1914
Rp1915
sI74
g1118
((lp1916
I161
atp1917
Rp1918
sI75
g1118
((lp1919
I156
atp1920
Rp1921
sI76
g1118
((lp1922
I192
atp1923
Rp1924
sI80
g1118
((lp1925
I137
atp1926
Rp1927
sI81
g1118
((lp1928
I113
atp1929
Rp1930
sI85
g1118
((lp1931
I163
atp1932
Rp1933
sI87
g1118
((lp1934
I128
atp1935
Rp1936
sI88
g1118
((lp1937
I121
atp1938
Rp1939
sI89
g1118
((lp1940
I104
atp1941
Rp1942
sI90
g1118
((lp1943
I115
atp1944
Rp1945
sI91
g1118
((lp1946
I113
aI173
atp1947
Rp1948
sI92
g1118
((lp1949
I154
atp1950
Rp1951
sI93
g1118
((lp1952
I116
atp1953
Rp1954
sI94
g1118
((lp1955
I126
atp1956
Rp1957
sI95
g1118
((lp1958
I200
aI155
atp1959
Rp1960
sI96
g1118
((lp1961
I172
atp1962
Rp1963
sI97
g1118
((lp1964
I106
atp1965
Rp1966
sI98
g1118
((lp1967
I126
atp1968
Rp1969
sI99
g1118
((lp1970
I158
atp1971
Rp1972
sI100
g1118
((lp1973
I166
atp1974
Rp1975
sI101
g1118
((lp1976
I37
atp1977
Rp1978
sI102
g1118
((lp1979
I6
atp1980
Rp1981
sI103
g1118
((lp1982
I29
aI6
aI13
atp1983
Rp1984
sI104
g1118
((lp1985
I48
aI89
atp1986
Rp1987
sI105
g1118
((lp1988
I47
atp1989
Rp1990
sI106
g1118
((lp1991
I97
atp1992
Rp1993
sI107
g1118
((lp1994
I2
atp1995
Rp1996
sI108
g1118
((lp1997
I66
atp1998
Rp1999
sI109
g1118
((lp2000
I1
aI14
atp2001
Rp2002
sI110
g1118
((lp2003
I19
atp2004
Rp2005
sI111
g1118
((lp2006
I72
aI18
atp2007
Rp2008
sI112
g1118
((lp2009
I59
aI47
atp2010
Rp2011
sI113
g1118
((lp2012
I72
aI81
aI2
aI91
aI68
atp2013
Rp2014
sI114
g1118
((lp2015
I20
atp2016
Rp2017
sI115
g1118
((lp2018
I57
aI90
atp2019
Rp2020
sI116
g1118
((lp2021
I93
atp2022
Rp2023
sI118
g1118
((lp2024
I28
atp2025
Rp2026
sI119
g1118
((lp2027
I31
atp2028
Rp2029
sI120
g1118
((lp2030
I40
atp2031
Rp2032
sI121
g1118
((lp2033
I88
aI62
atp2034
Rp2035
sI122
g1118
((lp2036
I42
aI47
atp2037
Rp2038
sI123
g1118
((lp2039
I26
atp2040
Rp2041
sI124
g1118
((lp2042
I45
atp2043
Rp2044
sI125
g1118
((lp2045
I20
atp2046
Rp2047
sI126
g1118
((lp2048
I98
aI94
atp2049
Rp2050
sI127
g1118
((lp2051
I67
atp2052
Rp2053
sI128
g1118
((lp2054
I34
aI87
atp2055
Rp2056
sI129
g1118
((lp2057
I4
aI30
atp2058
Rp2059
sI130
g1118
((lp2060
I17
atp2061
Rp2062
sI131
g1118
((lp2063
I45
atp2064
Rp2065
sI132
g1118
((lp2066
I34
atp2067
Rp2068
sI133
g1118
((lp2069
I23
atp2070
Rp2071
sI134
g1118
((lp2072
I27
aI61
atp2073
Rp2074
sI136
g1118
((lp2075
I7
atp2076
Rp2077
sI137
g1118
((lp2078
I80
aI35
atp2079
Rp2080
sI138
g1118
((lp2081
I3
atp2082
Rp2083
sI140
g1118
((lp2084
I58
atp2085
Rp2086
sI141
g1118
((lp2087
I8
atp2088
Rp2089
sI142
g1118
((lp2090
I46
atp2091
Rp2092
sI143
g1118
((lp2093
I52
atp2094
Rp2095
sI144
g1118
((lp2096
I13
atp2097
Rp2098
sI145
g1118
((lp2099
I15
atp2100
Rp2101
sI146
g1118
((lp2102
I64
aI37
atp2103
Rp2104
sI147
g1118
((lp2105
I44
atp2106
Rp2107
sI149
g1118
((lp2108
I41
aI18
atp2109
Rp2110
sI151
g1118
((lp2111
I43
aI47
atp2112
Rp2113
sI153
g1118
((lp2114
I65
atp2115
Rp2116
sI154
g1118
((lp2117
I56
aI92
atp2118
Rp2119
sI155
g1118
((lp2120
I95
atp2121
Rp2122
sI156
g1118
((lp2123
I75
aI70
atp2124
Rp2125
sI157
g1118
((lp2126
I36
atp2127
Rp2128
sI158
g1118
((lp2129
I99
aI55
atp2130
Rp2131
sI159
g1118
((lp2132
I69
atp2133
Rp2134
sI161
g1118
((lp2135
I74
atp2136
Rp2137
sI162
g1118
((lp2138
I33
atp2139
Rp2140
sI163
g1118
((lp2141
I85
atp2142
Rp2143
sI165
g1118
((lp2144
I32
atp2145
Rp2146
sI166
g1118
((lp2147
I10
aI100
aI31
atp2148
Rp2149
sI167
g1118
((lp2150
I41
atp2151
Rp2152
sI171
g1118
((lp2153
I63
atp2154
Rp2155
sI172
g1118
((lp2156
I96
atp2157
Rp2158
sI173
g1118
((lp2159
I91
atp2160
Rp2161
sI174
g1118
((lp2162
I24
atp2163
Rp2164
sI177
g1118
((lp2165
I3
atp2166
Rp2167
sI178
g1118
((lp2168
I22
atp2169
Rp2170
sI179
g1118
((lp2171
I22
atp2172
Rp2173
sI182
g1118
((lp2174
I9
atp2175
Rp2176
sI183
g1118
((lp2177
I9
atp2178
Rp2179
sI184
g1118
((lp2180
I43
atp2181
Rp2182
sI186
g1118
((lp2183
I49
aI41
atp2184
Rp2185
sI188
g1118
((lp2186
I60
atp2187
Rp2188
sI190
g1118
((lp2189
I25
atp2190
Rp2191
sI191
g1118
((lp2192
I50
atp2193
Rp2194
sI192
g1118
((lp2195
I76
atp2196
Rp2197
sI193
g1118
((lp2198
I39
atp2199
Rp2200
sI194
g1118
((lp2201
I19
aI69
atp2202
Rp2203
sI195
g1118
((lp2204
I24
atp2205
Rp2206
sI197
g1118
((lp2207
I14
atp2208
Rp2209
sI198
g1118
((lp2210
I53
atp2211
Rp2212
sI199
g1118
((lp2213
I62
atp2214
Rp2215
sI200
g1118
((lp2216
I95
atp2217
Rp2218
sa(dp2219
I1
I1
sa(dp2220
I1
I2
sa(dp2221
I1
g1118
((lp2222
I1
aI2
aI3
aI4
aI5
aI6
aI7
aI8
aI9
aI10
aI11
aI12
aI13
aI14
aI15
aI16
aI17
aI18
aI19
aI20
aI21
aI22
aI23
aI24
aI25
aI26
aI27
aI28
aI29
aI30
aI31
aI32
aI33
aI34
aI35
aI36
aI37
aI38
aI39
aI40
aI41
aI42
aI43
aI44
aI45
aI46
aI47
aI48
aI49
aI50
aI51
aI52
aI53
aI54
aI55
aI56
aI57
aI58
aI59
aI60
aI61
aI62
aI63
aI64
aI65
aI66
aI67
aI68
aI69
aI70
aI71
aI72
aI73
aI74
aI75
aI76
aI77
aI78
aI79
aI80
aI81
aI82
aI83
aI84
aI85
aI86
aI87
aI88
aI89
aI90
aI91
aI92
aI93
aI94
aI95
aI96
aI97
aI98
aI99
aI100
aI101
aI102
aI103
aI104
aI105
aI106
aI107
aI108
aI109
aI110
aI111
aI112
aI113
aI114
aI115
aI116
aI117
aI118
aI119
aI120
aI121
aI122
aI123
aI124
aI125
aI126
aI127
aI128
aI129
aI130
aI131
aI132
aI133
aI134
aI135
aI136
aI137
aI138
aI139
aI140
aI141
aI142
aI143
aI144
aI145
aI146
aI147
aI148
aI149
aI150
aI151
aI152
aI153
aI154
aI155
aI156
aI157
aI158
aI159
aI160
aI161
aI162
aI163
aI164
aI165
aI166
aI167
aI168
aI169
aI170
aI171
aI172
aI173
aI174
aI175
aI176
aI177
aI178
aI179
aI180
aI181
aI182
aI183
aI184
aI185
aI186
aI187
aI188
aI189
aI190
aI191
aI192
aI193
aI194
aI195
aI196
aI197
aI198
aI199
aI200
atp2223
Rp2224
sa(dp2225
I1
I590
sI2
I590
sa(dp2226
I1
I109
saI0
a(dp2227
I1
g1118
((lp2228
I66
aI132
aI102
aI6
aI140
aI108
aI34
aI15
aI145
aI26
aI123
aI58
atp2229
Rp2230
sI2
g1118
((lp2231
I1
aI103
aI42
aI44
aI109
aI18
aI147
aI149
aI122
aI29
atp2232
Rp2233
sI3
g1118
((lp2234
I129
aI4
aI37
aI13
aI46
aI144
aI142
aI118
aI28
aI30
aI101
atp2235
Rp2236
sI4
g1118
((lp2237
I3
aI182
aI177
aI9
aI138
aI151
aI47
aI49
aI178
aI179
aI22
aI105
aI186
aI183
atp2238
Rp2239
sI5
g1118
((lp2240
I91
aI72
aI184
aI43
aI173
aI111
aI112
aI88
aI116
aI171
aI56
aI121
aI154
aI59
aI92
aI93
aI63
atp2241
Rp2242
sI6
g1118
((lp2243
I161
aI194
aI67
aI36
aI197
aI198
aI199
aI200
aI74
aI110
aI14
aI190
aI19
aI155
aI53
aI25
aI127
aI157
aI62
aI95
atp2244
Rp2245
sI7
g1118
((lp2246
I97
aI98
aI99
aI100
aI166
aI134
aI10
aI126
aI158
aI115
aI106
aI55
aI57
aI90
aI27
aI61
aI94
atp2247
Rp2248
sI8
g1118
((lp2249
I32
aI2
aI131
aI133
aI8
aI107
aI45
aI141
aI40
aI23
aI120
aI124
aI165
atp2250
Rp2251
sI9
g1118
((lp2252
I64
aI80
aI130
aI35
aI68
aI81
aI104
aI137
aI128
aI48
aI17
aI146
aI113
aI87
aI89
atp2253
Rp2254
sI10
g1118
((lp2255
I96
aI188
aI163
aI69
aI70
aI39
aI156
aI193
aI75
aI76
aI143
aI50
aI172
aI52
aI85
aI191
aI60
aI192
aI159
atp2256
Rp2257
sI11
g1118
((lp2258
I33
aI162
aI195
aI65
aI7
aI136
aI41
aI167
aI174
aI114
aI20
aI119
aI24
aI153
aI125
aI31
atp2259
Rp2260
sI12
g1118
((lp2261
I71
aI73
aI11
aI12
aI16
aI84
aI21
aI54
atp2262
Rp2263
sI13
g1118
((lp2264
I83
aI5
aI38
aI77
aI78
aI79
aI82
aI51
aI86
atp2265
Rp2266
sI14
g1118
((lp2267
I164
aI135
aI168
aI180
aI117
aI148
aI187
aI189
aI181
atp2268
Rp2269
sI15
g1118
((lp2270
I160
aI196
aI169
aI170
aI139
aI175
aI176
aI150
aI152
aI185
atp2271
Rp2272
sa.