(lp0
(dp1
I1
I0
sI2
I1
sI3
I2
sI4
I3
sI5
I4
sI6
I5
sI7
I6
sI8
I1
sI9
I7
sI10
I8
sI11
I9
sI12
I10
sI13
I3
sI14
I11
sI15
I5
sI16
I10
sI17
I12
sI18
I0
sI19
I13
sI20
I6
sI21
I10
sI22
I7
sI23
I1
sI24
I6
sI25
I11
sI26
I5
sI27
I8
sI28
I3
sI29
I0
sI30
I3
sI31
I6
sI32
I1
sI33
I6
sI34
I5
sI35
I12
sI36
I11
sI37
I3
sI38
I4
sI39
I14
sI40
I1
sI41
I6
sI42
I15
sI43
I16
sI44
I0
sI45
I1
sI46
I3
sI47
I7
sI48
I17
sI49
I7
sI50
I14
sI51
I4
sI52
I14
sI53
I11
sI54
I10
sI55
I8
sI56
I16
sI57
I8
sI58
I5
sI59
I16
sI60
I14
sI61
I8
sI62
I11
sI63
I16
sI64
I12
sI65
I6
sI66
I5
sI67
I11
sI68
I12
sI69
I14
sI70
I14
sI71
I10
sI72
I16
sI73
I10
sI74
I11
sI75
I14
sI76
I14
sI77
I4
sI78
I4
sI79
I4
sI80
I12
sI81
I12
sI82
I4
sI83
I4
sI84
I10
sI85
I14
sI86
I4
sI87
I12
sI88
I16
sI89
I12
sI90
I8
sI91
I16
sI92
I16
sI93
I16
sI94
I8
sI95
I11
sI96
I14
sI97
I8
sI98
I8
sI99
I8
sI100
I8
sI101
I4
sI102
I5
sI103
I6
sI104
I0
sI105
I18
sI106
I19
sI107
I8
sI108
I5
sI109
I6
sI110
I11
sI111
I16
sI112
I16
sI113
I0
sI114
I15
sI115
I12
sI116
I16
sI117
I10
sI118
I4
sI119
I15
sI120
I14
sI121
I16
sI122
I6
sI123
I5
sI124
I8
sI125
I15
sI126
I19
sI127
I13
sI128
I0
sI129
I4
sI130
I0
sI131
I8
sI132
I5
sI133
I8
sI134
I19
sI135
I9
sI136
I15
sI137
I0
sI138
I18
sI139
I17
sI140
I5
sI141
I8
sI142
I4
sI143
I2
sI144
I4
sI145
I5
sI146
I0
sI147
I6
sI148
I9
sI149
I6
sI150
I17
sI151
I18
sI152
I17
sI153
I15
sI154
I16
sI155
I13
sI156
I2
sI157
I13
sI158
I19
sI159
I2
sI160
I17
sI161
I13
sI162
I15
sI163
I2
sI164
I9
sI165
I8
sI166
I19
sI167
I15
sI168
I9
sI169
I17
sI170
I17
sI171
I16
sI172
I2
sI173
I16
sI174
I15
sI175
I17
sI176
I17
sI177
I18
sI178
I18
sI179
I18
sI180
I9
sI181
I9
sI182
I18
sI183
I18
sI184
I16
sI185
I17
sI186
I18
sI187
I9
sI188
I2
sI189
I9
sI190
I13
sI191
I2
sI192
I2
sI193
I2
sI194
I13
sI195
I15
sI196
I17
sI197
I13
sI198
I13
sI199
I13
sI200
I13
sa(dp2
I0
I0
sI1
I0
sI2
I1
sI3
I2
sI4
I3
sI5
I4
sI6
I5
sI7
I1
sI8
I6
sI9
I7
sI10
I7
sI11
I8
sI12
I9
sI13
I8
sI14
I10
sI15
I0
sI16
I11
sI17
I10
sI18
I12
sI19
I9
sa.