(dp0
I1
I0
sI2
I1
sI3
I2
sI4
I3
sI5
I4
sI6
I5
sI7
I6
sI8
I1
sI9
I2
sI10
I7
sI11
I8
sI12
I9
sI13
I3
sI14
I10
sI15
I5
sI16
I9
sI17
I11
sI18
I0
sI19
I10
sI20
I6
sI21
I9
sI22
I2
sI23
I1
sI24
I6
sI25
I10
sI26
I5
sI27
I7
sI28
I3
sI29
I0
sI30
I3
sI31
I6
sI32
I1
sI33
I6
sI34
I5
sI35
I11
sI36
I10
sI37
I3
sI38
I12
sI39
I13
sI40
I1
sI41
I6
sI42
I0
sI43
I14
sI44
I0
sI45
I1
sI46
I3
sI47
I2
sI48
I11
sI49
I2
sI50
I13
sI51
I12
sI52
I13
sI53
I10
sI54
I9
sI55
I7
sI56
I14
sI57
I7
sI58
I5
sI59
I14
sI60
I13
sI61
I7
sI62
I10
sI63
I14
sI64
I11
sI65
I6
sI66
I5
sI67
I10
sI68
I11
sI69
I13
sI70
I13
sI71
I9
sI72
I14
sI73
I9
sI74
I10
sI75
I13
sI76
I13
sI77
I12
sI78
I12
sI79
I12
sI80
I11
sI81
I11
sI82
I12
sI83
I12
sI84
I9
sI85
I13
sI86
I12
sI87
I11
sI88
I14
sI89
I11
sI90
I7
sI91
I14
sI92
I14
sI93
I14
sI94
I7
sI95
I10
sI96
I13
sI97
I7
sI98
I7
sI99
I7
sI100
I7
sI101
I7
sI102
I11
sI103
I1
sI104
I0
sI105
I2
sI106
I12
sI107
I10
sI108
I11
sI109
I1
sI110
I4
sI111
I3
sI112
I3
sI113
I0
sI114
I6
sI115
I12
sI116
I3
sI117
I9
sI118
I7
sI119
I6
sI120
I10
sI121
I3
sI122
I1
sI123
I11
sI124
I10
sI125
I6
sI126
I12
sI127
I4
sI128
I0
sI129
I7
sI130
I0
sI131
I10
sI132
I11
sI133
I10
sI134
I12
sI135
I8
sI136
I6
sI137
I0
sI138
I2
sI139
I15
sI140
I11
sI141
I10
sI142
I7
sI143
I14
sI144
I7
sI145
I11
sI146
I0
sI147
I1
sI148
I8
sI149
I1
sI150
I15
sI151
I2
sI152
I15
sI153
I6
sI154
I3
sI155
I4
sI156
I14
sI157
I4
sI158
I12
sI159
I14
sI160
I15
sI161
I4
sI162
I6
sI163
I14
sI164
I8
sI165
I10
sI166
I12
sI167
I6
sI168
I8
sI169
I15
sI170
I15
sI171
I3
sI172
I14
sI173
I3
sI174
I6
sI175
I15
sI176
I15
sI177
I2
sI178
I2
sI179
I2
sI180
I8
sI181
I8
sI182
I2
sI183
I2
sI184
I3
sI185
I15
sI186
I2
sI187
I8
sI188
I14
sI189
I8
sI190
I4
sI191
I14
sI192
I14
sI193
I14
sI194
I4
sI195
I6
sI196
I15
sI197
I4
sI198
I4
sI199
I4
sI200
I4
s.