(lp0
(dp1
I1
I0
sI2
I1
sI3
I2
sI4
I3
sI5
I4
sI6
I5
sI7
I6
sI8
I1
sI9
I2
sI10
I7
sI11
I8
sI12
I8
sI13
I3
sI14
I9
sI15
I5
sI16
I8
sI17
I10
sI18
I0
sI19
I9
sI20
I6
sI21
I8
sI22
I2
sI23
I1
sI24
I6
sI25
I9
sI26
I5
sI27
I7
sI28
I3
sI29
I0
sI30
I3
sI31
I6
sI32
I1
sI33
I6
sI34
I5
sI35
I10
sI36
I9
sI37
I3
sI38
I4
sI39
I11
sI40
I1
sI41
I6
sI42
I0
sI43
I12
sI44
I0
sI45
I1
sI46
I3
sI47
I2
sI48
I10
sI49
I2
sI50
I11
sI51
I4
sI52
I11
sI53
I9
sI54
I8
sI55
I7
sI56
I12
sI57
I7
sI58
I5
sI59
I12
sI60
I11
sI61
I7
sI62
I9
sI63
I12
sI64
I10
sI65
I6
sI66
I5
sI67
I9
sI68
I10
sI69
I11
sI70
I11
sI71
I8
sI72
I12
sI73
I8
sI74
I9
sI75
I11
sI76
I11
sI77
I4
sI78
I4
sI79
I4
sI80
I10
sI81
I10
sI82
I4
sI83
I4
sI84
I8
sI85
I11
sI86
I4
sI87
I10
sI88
I12
sI89
I10
sI90
I7
sI91
I12
sI92
I12
sI93
I12
sI94
I7
sI95
I9
sI96
I11
sI97
I7
sI98
I7
sI99
I7
sI100
I7
sI101
I13
sI102
I14
sI103
I15
sI104
I16
sI105
I11
sI106
I17
sI107
I5
sI108
I14
sI109
I15
sI110
I18
sI111
I19
sI112
I19
sI113
I16
sI114
I20
sI115
I17
sI116
I19
sI117
I21
sI118
I13
sI119
I20
sI120
I5
sI121
I19
sI122
I15
sI123
I14
sI124
I5
sI125
I20
sI126
I17
sI127
I18
sI128
I16
sI129
I13
sI130
I16
sI131
I5
sI132
I14
sI133
I5
sI134
I17
sI135
I21
sI136
I20
sI137
I16
sI138
I11
sI139
I22
sI140
I14
sI141
I5
sI142
I13
sI143
I1
sI144
I13
sI145
I14
sI146
I16
sI147
I15
sI148
I21
sI149
I15
sI150
I22
sI151
I11
sI152
I22
sI153
I20
sI154
I19
sI155
I18
sI156
I1
sI157
I18
sI158
I17
sI159
I1
sI160
I22
sI161
I18
sI162
I20
sI163
I1
sI164
I21
sI165
I5
sI166
I17
sI167
I20
sI168
I21
sI169
I22
sI170
I22
sI171
I19
sI172
I1
sI173
I19
sI174
I20
sI175
I22
sI176
I22
sI177
I11
sI178
I11
sI179
I11
sI180
I21
sI181
I21
sI182
I11
sI183
I11
sI184
I19
sI185
I22
sI186
I11
sI187
I21
sI188
I1
sI189
I21
sI190
I18
sI191
I1
sI192
I1
sI193
I1
sI194
I18
sI195
I20
sI196
I22
sI197
I18
sI198
I18
sI199
I18
sI200
I18
sa(dp2
I0
I0
sI1
I1
sI2
I2
sI3
I3
sI4
I4
sI5
I5
sI6
I6
sI7
I7
sI8
I8
sI9
I9
sI10
I10
sI11
I11
sI12
I12
sI13
I13
sI14
I14
sI15
I15
sI16
I16
sI17
I15
sI18
I17
sI19
I18
sI20
I19
sI21
I20
sI22
I21
sa.