(lp0
(dp1
I1
I0
sI2
I1
sI3
I2
sI4
I3
sI5
I4
sI6
I5
sI7
I6
sI8
I7
sI9
I2
sI10
I8
sI11
I9
sI12
I10
sI13
I3
sI14
I11
sI15
I5
sI16
I10
sI17
I12
sI18
I0
sI19
I11
sI20
I6
sI21
I10
sI22
I2
sI23
I7
sI24
I6
sI25
I11
sI26
I5
sI27
I13
sI28
I3
sI29
I0
sI30
I3
sI31
I6
sI32
I7
sI33
I6
sI34
I5
sI35
I12
sI36
I11
sI37
I3
sI38
I4
sI39
I14
sI40
I7
sI41
I6
sI42
I0
sI43
I15
sI44
I0
sI45
I7
sI46
I3
sI47
I2
sI48
I12
sI49
I2
sI50
I14
sI51
I4
sI52
I14
sI53
I11
sI54
I10
sI55
I13
sI56
I15
sI57
I13
sI58
I5
sI59
I15
sI60
I14
sI61
I13
sI62
I11
sI63
I15
sI64
I12
sI65
I6
sI66
I5
sI67
I11
sI68
I12
sI69
I14
sI70
I14
sI71
I10
sI72
I15
sI73
I10
sI74
I11
sI75
I14
sI76
I14
sI77
I4
sI78
I4
sI79
I4
sI80
I12
sI81
I12
sI82
I4
sI83
I4
sI84
I10
sI85
I14
sI86
I4
sI87
I12
sI88
I15
sI89
I12
sI90
I13
sI91
I15
sI92
I15
sI93
I15
sI94
I13
sI95
I11
sI96
I14
sI97
I13
sI98
I13
sI99
I13
sI100
I13
sI101
I16
sI102
I0
sI103
I12
sI104
I6
sI105
I1
sI106
I17
sI107
I11
sI108
I0
sI109
I12
sI110
I18
sI111
I4
sI112
I4
sI113
I6
sI114
I9
sI115
I17
sI116
I4
sI117
I13
sI118
I16
sI119
I9
sI120
I11
sI121
I4
sI122
I12
sI123
I0
sI124
I11
sI125
I9
sI126
I14
sI127
I18
sI128
I6
sI129
I16
sI130
I6
sI131
I11
sI132
I0
sI133
I11
sI134
I17
sI135
I8
sI136
I9
sI137
I6
sI138
I1
sI139
I3
sI140
I0
sI141
I11
sI142
I5
sI143
I2
sI144
I16
sI145
I0
sI146
I6
sI147
I12
sI148
I8
sI149
I12
sI150
I3
sI151
I1
sI152
I3
sI153
I9
sI154
I4
sI155
I18
sI156
I2
sI157
I18
sI158
I17
sI159
I2
sI160
I3
sI161
I18
sI162
I9
sI163
I2
sI164
I8
sI165
I11
sI166
I17
sI167
I9
sI168
I8
sI169
I3
sI170
I3
sI171
I4
sI172
I2
sI173
I4
sI174
I9
sI175
I3
sI176
I3
sI177
I1
sI178
I1
sI179
I1
sI180
I8
sI181
I8
sI182
I1
sI183
I1
sI184
I4
sI185
I3
sI186
I1
sI187
I8
sI188
I2
sI189
I8
sI190
I18
sI191
I2
sI192
I2
sI193
I2
sI194
I18
sI195
I9
sI196
I3
sI197
I18
sI198
I18
sI199
I18
sI200
I18
sa(dp2
I0
I0
sI1
I1
sI2
I2
sI3
I3
sI4
I4
sI5
I5
sI6
I6
sI7
I1
sI8
I7
sI9
I8
sI10
I8
sI11
I9
sI12
I10
sI13
I7
sI14
I11
sI15
I12
sI16
I5
sI17
I11
sI18
I13
sa.