(lp0
(dp1
I1
I0
sI2
I1
sI3
I2
sI4
I3
sI5
I4
sI6
I5
sI7
I6
sI8
I1
sI9
I2
sI10
I7
sI11
I8
sI12
I8
sI13
I3
sI14
I9
sI15
I5
sI16
I8
sI17
I10
sI18
I0
sI19
I9
sI20
I6
sI21
I8
sI22
I2
sI23
I1
sI24
I6
sI25
I11
sI26
I5
sI27
I7
sI28
I3
sI29
I0
sI30
I3
sI31
I6
sI32
I1
sI33
I6
sI34
I5
sI35
I10
sI36
I9
sI37
I3
sI38
I4
sI39
I12
sI40
I1
sI41
I6
sI42
I0
sI43
I13
sI44
I0
sI45
I1
sI46
I3
sI47
I2
sI48
I10
sI49
I2
sI50
I12
sI51
I14
sI52
I12
sI53
I9
sI54
I8
sI55
I7
sI56
I13
sI57
I7
sI58
I5
sI59
I13
sI60
I12
sI61
I7
sI62
I9
sI63
I13
sI64
I10
sI65
I6
sI66
I5
sI67
I9
sI68
I10
sI69
I12
sI70
I12
sI71
I8
sI72
I13
sI73
I8
sI74
I9
sI75
I12
sI76
I12
sI77
I4
sI78
I4
sI79
I4
sI80
I10
sI81
I10
sI82
I4
sI83
I4
sI84
I8
sI85
I12
sI86
I4
sI87
I10
sI88
I13
sI89
I10
sI90
I7
sI91
I13
sI92
I13
sI93
I13
sI94
I7
sI95
I9
sI96
I12
sI97
I7
sI98
I7
sI99
I7
sI100
I7
sI101
I15
sI102
I8
sI103
I13
sI104
I3
sI105
I0
sI106
I1
sI107
I10
sI108
I8
sI109
I13
sI110
I9
sI111
I14
sI112
I14
sI113
I3
sI114
I7
sI115
I1
sI116
I4
sI117
I5
sI118
I15
sI119
I7
sI120
I10
sI121
I14
sI122
I13
sI123
I8
sI124
I10
sI125
I7
sI126
I1
sI127
I11
sI128
I3
sI129
I15
sI130
I3
sI131
I10
sI132
I8
sI133
I10
sI134
I1
sI135
I5
sI136
I7
sI137
I3
sI138
I0
sI139
I2
sI140
I8
sI141
I10
sI142
I15
sI143
I12
sI144
I15
sI145
I8
sI146
I3
sI147
I13
sI148
I5
sI149
I13
sI150
I2
sI151
I0
sI152
I2
sI153
I7
sI154
I14
sI155
I11
sI156
I12
sI157
I11
sI158
I1
sI159
I12
sI160
I2
sI161
I11
sI162
I7
sI163
I12
sI164
I5
sI165
I10
sI166
I1
sI167
I7
sI168
I5
sI169
I2
sI170
I2
sI171
I14
sI172
I12
sI173
I14
sI174
I7
sI175
I2
sI176
I2
sI177
I0
sI178
I0
sI179
I0
sI180
I5
sI181
I5
sI182
I0
sI183
I0
sI184
I14
sI185
I2
sI186
I0
sI187
I5
sI188
I12
sI189
I5
sI190
I11
sI191
I12
sI192
I12
sI193
I12
sI194
I11
sI195
I7
sI196
I2
sI197
I11
sI198
I11
sI199
I11
sI200
I11
sa(dp2
I0
I0
sI1
I1
sI2
I2
sI3
I3
sI4
I0
sI5
I4
sI6
I5
sI7
I6
sI8
I4
sI9
I7
sI10
I8
sI11
I7
sI12
I9
sI13
I1
sI14
I0
sI15
I2
sa.