(lp0
(dp1
I1
I0
sI2
I1
sI3
I2
sI4
I3
sI5
I4
sI6
I5
sI7
I6
sI8
I1
sI9
I2
sI10
I7
sI11
I8
sI12
I8
sI13
I9
sI14
I10
sI15
I11
sI16
I12
sI17
I13
sI18
I14
sI19
I15
sI20
I16
sI21
I8
sI22
I2
sI23
I1
sI24
I16
sI25
I15
sI26
I5
sI27
I7
sI28
I9
sI29
I14
sI30
I9
sI31
I16
sI32
I1
sI33
I16
sI34
I5
sI35
I13
sI36
I15
sI37
I9
sI38
I4
sI39
I17
sI40
I1
sI41
I16
sI42
I14
sI43
I18
sI44
I14
sI45
I1
sI46
I9
sI47
I2
sI48
I13
sI49
I2
sI50
I17
sI51
I4
sI52
I17
sI53
I15
sI54
I8
sI55
I7
sI56
I18
sI57
I7
sI58
I5
sI59
I18
sI60
I17
sI61
I7
sI62
I15
sI63
I18
sI64
I13
sI65
I16
sI66
I5
sI67
I15
sI68
I13
sI69
I17
sI70
I17
sI71
I8
sI72
I18
sI73
I8
sI74
I15
sI75
I17
sI76
I17
sI77
I4
sI78
I4
sI79
I4
sI80
I13
sI81
I13
sI82
I4
sI83
I4
sI84
I8
sI85
I17
sI86
I4
sI87
I13
sI88
I18
sI89
I13
sI90
I7
sI91
I18
sI92
I18
sI93
I18
sI94
I7
sI95
I15
sI96
I17
sI97
I7
sI98
I7
sI99
I7
sI100
I7
sI101
I14
sI102
I17
sI103
I4
sI104
I9
sI105
I13
sI106
I15
sI107
I3
sI108
I18
sI109
I5
sI110
I16
sI111
I0
sI112
I0
sI113
I9
sI114
I19
sI115
I7
sI116
I0
sI117
I1
sI118
I14
sI119
I19
sI120
I3
sI121
I0
sI122
I5
sI123
I17
sI124
I3
sI125
I19
sI126
I8
sI127
I6
sI128
I9
sI129
I14
sI130
I9
sI131
I3
sI132
I17
sI133
I3
sI134
I7
sI135
I12
sI136
I19
sI137
I9
sI138
I13
sI139
I10
sI140
I17
sI141
I3
sI142
I14
sI143
I11
sI144
I14
sI145
I17
sI146
I9
sI147
I5
sI148
I12
sI149
I5
sI150
I10
sI151
I13
sI152
I10
sI153
I19
sI154
I0
sI155
I6
sI156
I11
sI157
I6
sI158
I7
sI159
I11
sI160
I10
sI161
I6
sI162
I19
sI163
I11
sI164
I12
sI165
I3
sI166
I7
sI167
I19
sI168
I12
sI169
I10
sI170
I10
sI171
I0
sI172
I11
sI173
I0
sI174
I19
sI175
I10
sI176
I10
sI177
I13
sI178
I13
sI179
I13
sI180
I12
sI181
I12
sI182
I13
sI183
I13
sI184
I0
sI185
I10
sI186
I13
sI187
I12
sI188
I11
sI189
I12
sI190
I6
sI191
I11
sI192
I11
sI193
I11
sI194
I6
sI195
I19
sI196
I10
sI197
I6
sI198
I6
sI199
I6
sI200
I6
sa(dp2
I0
I0
sI1
I1
sI2
I2
sI3
I3
sI4
I3
sI5
I4
sI6
I5
sI7
I6
sI8
I6
sI9
I7
sI10
I8
sI11
I4
sI12
I1
sI13
I9
sI14
I10
sI15
I8
sI16
I5
sI17
I0
sI18
I11
sI19
I12
sa.